Certificate:
    Data:
        Version: 3 (0x2)
        Serial Number: 4096 (0x1000)
    Signature Algorithm: sha256WithRSAEncryption
        Issuer: C=US, ST=New York, L=Syracuse, O=Model CA, CN=modelCA.com
        Validity
            Not Before: Apr  8 04:59:53 2019 GMT
            Not After : Apr  7 04:59:53 2020 GMT
        Subject: C=US, ST=New York, O=Bank, CN=bank32.com
        Subject Public Key Info:
            Public Key Algorithm: rsaEncryption
                Public-Key: (2048 bit)
                Modulus:
                    00:e6:64:32:2a:ac:a0:ee:57:22:50:e8:70:c7:f7:
                    06:92:8e:ed:aa:b1:45:91:ad:bd:de:f2:bc:a6:78:
                    6e:c9:f2:38:60:a2:69:e8:a2:ec:79:f2:84:dc:54:
                    78:5c:ec:37:58:62:16:ae:b8:c1:a3:ea:b8:b1:b1:
                    a5:3a:e8:99:bb:0a:fe:6f:20:97:23:6f:bf:ef:37:
                    65:04:b8:7b:92:f9:60:00:18:76:ad:77:01:b9:7b:
                    c9:0a:2f:e1:e0:b7:fc:fa:45:20:85:20:86:c6:89:
                    0d:78:6b:cf:7c:7b:e9:2c:a3:90:c9:da:1a:ed:3f:
                    e7:ff:36:08:6d:69:d3:ff:ee:55:9f:f5:78:18:6d:
                    81:22:da:7d:8b:36:f6:76:45:79:7a:18:da:ad:bb:
                    11:09:5a:45:af:82:f3:eb:d7:90:0d:0d:49:3e:6b:
                    c8:b6:76:73:08:8c:06:9d:a9:06:fb:8c:83:c1:0a:
                    cc:8d:30:d6:93:7d:87:70:7b:b8:4a:88:f9:1c:a8:
                    c2:3e:f9:06:e1:ae:1b:34:f1:3e:c7:25:ab:b4:07:
                    49:b7:71:8b:54:40:84:56:1a:30:8d:b1:11:0d:68:
                    21:42:ae:e1:7e:7c:7b:94:c9:d1:43:91:f6:97:8b:
                    cc:63:8c:ef:05:c6:8d:a9:e5:dd:39:55:60:2a:b0:
                    81:01
                Exponent: 65537 (0x10001)
        X509v3 extensions:
            X509v3 Basic Constraints: 
                CA:FALSE
            Netscape Comment: 
                OpenSSL Generated Certificate
            X509v3 Subject Key Identifier: 
                85:E2:E9:94:74:5A:7A:F6:46:8F:E6:B8:20:31:EA:2E:89:47:A1:FD
            X509v3 Authority Key Identifier: 
                keyid:7B:21:44:BA:5C:5F:6F:98:78:51:43:C1:68:D8:05:EC:DB:33:98:DC

    Signature Algorithm: sha256WithRSAEncryption
         35:d7:f2:4f:fc:3d:5a:36:0e:6b:b3:a9:cb:b7:cc:4d:33:e7:
         8b:23:aa:7a:41:43:83:cb:93:07:fa:af:28:f5:9b:79:62:4b:
         1f:1e:29:44:de:5b:a6:04:33:08:b7:b7:c9:e4:63:26:d8:5d:
         a8:f6:0d:9c:e7:c1:22:a9:c3:44:5b:5f:ae:a8:7f:9c:ac:33:
         7b:95:2b:c4:f2:56:c9:92:b9:b5:91:16:0c:32:93:d7:70:0e:
         7c:8f:4e:f4:55:70:69:15:fc:5d:c5:02:de:ff:28:55:0e:cc:
         af:f9:ee:1f:e1:0d:95:d7:11:8e:bc:4e:7c:e4:01:5e:f5:d7:
         30:8d:9d:d1:34:a6:31:fc:e9:fb:50:be:4f:84:bd:ec:17:24:
         dc:e0:f2:cb:ec:0a:c2:bf:a7:94:b0:3c:16:eb:ee:8a:0c:39:
         82:a2:3c:51:b8:bb:1d:39:a4:5e:1f:ac:67:5a:a5:06:d5:92:
         06:c2:7d:89:37:bc:a0:a3:ad:bd:84:73:56:4a:2c:86:58:62:
         32:3b:2c:7b:77:b2:03:63:5b:81:6b:2f:02:af:82:89:d8:81:
         7e:e0:38:ea:bc:49:aa:0d:d2:fa:2e:ee:fd:a0:18:01:48:38:
         2f:dd:1f:55:69:55:f4:0a:87:44:b7:5a:7e:e9:01:8a:42:46:
         8e:64:7a:72:31:b9:fb:e3:da:9a:0d:2e:1c:38:cb:cf:39:40:
         91:b1:ab:8d:4e:67:3d:2d:00:df:6a:b6:3b:da:ce:4e:4d:2f:
         fd:ee:f4:f9:7f:33:7e:cb:ff:fb:10:03:f4:92:80:ee:b8:a3:
         66:a4:8a:16:c7:b9:cc:d9:35:47:8f:87:0a:ae:22:6e:d4:01:
         35:7c:26:a8:aa:f4:d0:d6:03:69:98:a3:f4:33:28:ef:ce:bd:
         7d:85:d6:ef:79:5e:fe:9b:99:20:fc:3f:70:c7:82:7c:31:65:
         85:1a:ac:8e:77:9d:1e:cb:be:5e:35:58:de:4a:ab:7c:cc:d4:
         30:e1:e3:92:7e:b6:72:b0:0b:c0:66:af:46:b6:38:20:36:b1:
         e8:c6:45:94:13:7c:ec:c2:0e:0b:eb:cb:c2:45:6d:21:41:84:
         77:54:bd:46:60:88:9b:3b:9b:3c:14:c7:ac:e5:b3:f3:14:a2:
         af:e1:bb:c1:80:7b:68:25:ab:8c:e9:1a:f2:32:db:3e:23:ed:
         df:d3:cf:fb:f6:8e:a9:e1:09:f8:00:51:cc:b5:46:1a:c3:f6:
         4b:5a:41:b2:c7:ae:d4:14:2a:cc:2e:d7:01:2c:cd:20:59:ef:
         c3:6f:15:56:b8:cf:c2:ad:9c:db:cc:d7:ab:0c:87:47:73:5a:
         70:7b:af:55:20:40:5b:48
-----BEGIN CERTIFICATE-----
MIIElzCCAn+gAwIBAgICEAAwDQYJKoZIhvcNAQELBQAwXDELMAkGA1UEBhMCVVMx
ETAPBgNVBAgMCE5ldyBZb3JrMREwDwYDVQQHDAhTeXJhY3VzZTERMA8GA1UECgwI
TW9kZWwgQ0ExFDASBgNVBAMMC21vZGVsQ0EuY29tMB4XDTE5MDQwODA0NTk1M1oX
DTIwMDQwNzA0NTk1M1owRDELMAkGA1UEBhMCVVMxETAPBgNVBAgMCE5ldyBZb3Jr
MQ0wCwYDVQQKDARCYW5rMRMwEQYDVQQDDApiYW5rMzIuY29tMIIBIjANBgkqhkiG
9w0BAQEFAAOCAQ8AMIIBCgKCAQEA5mQyKqyg7lciUOhwx/cGko7tqrFFka293vK8
pnhuyfI4YKJp6KLsefKE3FR4XOw3WGIWrrjBo+q4sbGlOuiZuwr+byCXI2+/7zdl
BLh7kvlgABh2rXcBuXvJCi/h4Lf8+kUghSCGxokNeGvPfHvpLKOQydoa7T/n/zYI
bWnT/+5Vn/V4GG2BItp9izb2dkV5ehjarbsRCVpFr4Lz69eQDQ1JPmvItnZzCIwG
nakG+4yDwQrMjTDWk32HcHu4Soj5HKjCPvkG4a4bNPE+xyWrtAdJt3GLVECEVhow
jbERDWghQq7hfnx7lMnRQ5H2l4vMY4zvBcaNqeXdOVVgKrCBAQIDAQABo3sweTAJ
BgNVHRMEAjAAMCwGCWCGSAGG+EIBDQQfFh1PcGVuU1NMIEdlbmVyYXRlZCBDZXJ0
aWZpY2F0ZTAdBgNVHQ4EFgQUheLplHRaevZGj+a4IDHqLolHof0wHwYDVR0jBBgw
FoAUeyFEulxfb5h4UUPBaNgF7NszmNwwDQYJKoZIhvcNAQELBQADggIBADXX8k/8
PVo2Dmuzqcu3zE0z54sjqnpBQ4PLkwf6ryj1m3liSx8eKUTeW6YEMwi3t8nkYybY
Xaj2DZznwSKpw0RbX66of5ysM3uVK8TyVsmSubWRFgwyk9dwDnyPTvRVcGkV/F3F
At7/KFUOzK/57h/hDZXXEY68TnzkAV711zCNndE0pjH86ftQvk+EvewXJNzg8svs
CsK/p5SwPBbr7ooMOYKiPFG4ux05pF4frGdapQbVkgbCfYk3vKCjrb2Ec1ZKLIZY
YjI7LHt3sgNjW4FrLwKvgonYgX7gOOq8SaoN0vou7v2gGAFIOC/dH1VpVfQKh0S3
Wn7pAYpCRo5kenIxufvj2poNLhw4y885QJGxq41OZz0tAN9qtjvazk5NL/3u9Pl/
M37L//sQA/SSgO64o2akihbHuczZNUePhwquIm7UATV8Jqiq9NDWA2mYo/QzKO/O
vX2F1u95Xv6bmSD8P3DHgnwxZYUarI53nR7Lvl41WN5Kq3zM1DDh45J+tnKwC8Bm
r0a2OCA2sejGRZQTfOzCDgvry8JFbSFBhHdUvUZgiJs7mzwUx6zls/MUoq/hu8GA
e2glq4zpGvIy2z4j7d/Tz/v2jqnhCfgAUcy1RhrD9ktaQbLHrtQUKswu1wEszSBZ
78NvFVa4z8KtnNvM16sMh0dzWnB7r1UgQFtI
-----END CERTIFICATE-----
