Certificate:
    Data:
        Version: 3 (0x2)
        Serial Number: 4098 (0x1002)
        Signature Algorithm: sha256WithRSAEncryption
        Issuer: CN=www.modelCA.com, O=Model CA LTD., C=US
        Validity
            Not Before: Jun 27 14:05:43 2021 GMT
            Not After : Jun 25 14:05:43 2031 GMT
        Subject: C=US, ST=New York, O=Bank32 Inc., CN=www.bank32.com
        Subject Public Key Info:
            Public Key Algorithm: rsaEncryption
                RSA Public-Key: (2048 bit)
                Modulus:
                    00:c1:cb:d2:7b:0b:b7:93:4e:40:d7:90:ef:90:57:
                    ca:b8:76:4b:8c:14:51:9a:44:70:41:fa:02:fe:ea:
                    32:26:77:ce:c0:cc:22:dc:f6:26:32:1d:d3:03:ce:
                    4a:ea:ca:66:6f:2b:28:c7:e7:c4:77:d3:c8:73:3a:
                    e6:c9:23:92:d0:97:8f:d4:58:0b:c9:4d:77:4e:54:
                    d1:82:87:07:ac:f6:c6:0b:cc:ca:c3:eb:33:9a:50:
                    aa:f9:17:f9:d8:13:e9:9d:af:48:ec:38:2a:06:40:
                    d8:5d:4b:01:d7:9f:95:a6:21:80:a1:c9:06:2f:6b:
                    28:e7:e7:15:58:d1:2c:70:43:52:cb:9e:73:05:6e:
                    6f:ab:5f:27:bf:24:94:34:89:f0:c1:38:02:29:57:
                    2a:ac:af:7e:c4:b3:10:eb:ae:9f:18:9e:eb:e6:62:
                    56:b6:39:a7:53:6b:80:99:aa:94:98:f6:9c:ad:67:
                    be:79:20:64:ec:b0:f4:06:55:c8:fa:78:f8:e8:38:
                    4f:20:db:b2:b5:43:8e:08:46:47:ee:a8:48:50:7b:
                    ce:52:f2:62:0e:b6:08:33:ed:f7:73:a7:62:33:cb:
                    fc:a7:07:32:51:a9:a0:b7:66:e7:34:b6:e2:31:c1:
                    2d:2c:66:31:94:d5:66:c3:b1:53:7d:52:aa:b9:47:
                    9d:79
                Exponent: 65537 (0x10001)
        X509v3 extensions:
            X509v3 Basic Constraints: 
                CA:FALSE
            Netscape Comment: 
                OpenSSL Generated Certificate
            X509v3 Subject Key Identifier: 
                48:78:2E:AA:85:C8:E7:0B:B7:8F:44:A0:7A:EA:53:83:DF:B8:7B:FE
            X509v3 Authority Key Identifier: 
                keyid:E2:D7:BF:05:0B:CA:F0:EF:22:7E:10:61:07:19:A3:75:EB:5E:3E:4C

            X509v3 Subject Alternative Name: 
                DNS:www.bank32.com, DNS:www.bank32A.com, DNS:www.bank32B.com
    Signature Algorithm: sha256WithRSAEncryption
         b4:ca:58:e9:26:f1:6d:af:1f:ad:43:c8:92:eb:bf:d7:f3:39:
         a0:10:4f:96:89:c3:33:53:8b:04:cc:ab:28:8f:68:60:6a:57:
         bd:ac:09:f3:5c:9b:dc:a8:7e:05:25:67:dd:d3:21:88:58:d3:
         31:f4:99:44:47:24:6b:e4:1a:a0:f8:fe:5e:ec:d5:40:ee:70:
         27:ef:fe:ba:40:6f:17:d9:56:c0:8f:0d:3d:ea:04:36:6b:93:
         b4:b8:74:7e:1b:1c:cc:4d:2f:a7:cb:cf:db:35:f4:5f:0f:1a:
         86:93:5c:e9:6a:6f:57:2e:8e:84:4c:3a:7b:b3:c9:79:e4:70:
         e5:5c:73:79:f1:75:17:9b:b4:25:59:32:f5:91:7e:02:93:a7:
         ed:b0:12:1b:d0:00:09:ea:e5:f9:50:dc:f0:18:9d:1f:eb:27:
         81:86:f3:c2:1f:2c:44:5c:48:81:50:73:d3:95:90:c1:fb:27:
         04:ba:2e:6e:2d:7c:a3:9b:e2:23:68:1b:ab:15:98:28:7a:aa:
         94:93:00:3b:5b:e5:3f:36:38:5a:e8:b3:a6:54:2a:91:07:51:
         95:a5:52:a4:87:d7:af:33:4d:83:10:79:05:95:18:c6:77:50:
         03:70:19:d3:e7:34:d6:18:7c:78:a3:a1:fb:f3:c3:02:7d:15:
         5f:fa:3e:09:05:c7:ba:ed:d8:f9:21:8c:0f:e9:9c:10:7c:a8:
         7c:07:d2:69:88:62:ac:33:f6:39:72:9d:47:3b:d4:2d:55:4c:
         d2:d3:d0:a4:d9:58:85:f2:d9:bb:4a:d2:02:56:1a:c5:c9:fa:
         e6:3b:8d:48:37:e1:11:a3:a1:c3:f0:39:17:29:42:4f:04:20:
         53:b7:96:25:9d:55:59:d9:2d:fb:b1:a5:c6:55:85:e7:d7:49:
         15:90:66:88:ee:20:c7:3d:76:d9:f5:92:32:e0:fc:b4:98:b2:
         ee:49:7e:e7:d0:ba:e6:7a:de:b7:c0:56:f9:7e:23:39:07:d9:
         de:05:00:5b:48:c6:20:39:d6:4b:f8:7e:10:c3:67:47:ee:9c:
         1e:e7:c8:10:27:71:77:18:c0:5b:a2:2a:85:21:44:47:17:56:
         f2:1f:00:cd:55:01:96:9c:83:88:d3:18:c0:2a:28:de:35:b5:
         73:82:f2:eb:97:85:5f:5b:cf:95:1a:3e:f6:ca:2f:e3:b2:56:
         ef:65:d1:36:d4:8c:e0:5e:79:5b:c0:b9:40:07:14:9c:31:ae:
         fd:e7:93:b6:b0:e0:52:7f:9b:c8:a5:2f:28:e3:da:95:bc:7b:
         9c:e2:42:6a:aa:c0:55:24:25:ec:76:59:c0:f1:54:a5:6e:8d:
         4b:6e:d1:6c:22:c7:c6:9d
-----BEGIN CERTIFICATE-----
MIIExDCCAqygAwIBAgICEAIwDQYJKoZIhvcNAQELBQAwPzEYMBYGA1UEAwwPd3d3
Lm1vZGVsQ0EuY29tMRYwFAYDVQQKDA1Nb2RlbCBDQSBMVEQuMQswCQYDVQQGEwJV
UzAeFw0yMTA2MjcxNDA1NDNaFw0zMTA2MjUxNDA1NDNaME8xCzAJBgNVBAYTAlVT
MREwDwYDVQQIDAhOZXcgWW9yazEUMBIGA1UECgwLQmFuazMyIEluYy4xFzAVBgNV
BAMMDnd3dy5iYW5rMzIuY29tMIIBIjANBgkqhkiG9w0BAQEFAAOCAQ8AMIIBCgKC
AQEAwcvSewu3k05A15DvkFfKuHZLjBRRmkRwQfoC/uoyJnfOwMwi3PYmMh3TA85K
6spmbysox+fEd9PIczrmySOS0JeP1FgLyU13TlTRgocHrPbGC8zKw+szmlCq+Rf5
2BPpna9I7DgqBkDYXUsB15+VpiGAockGL2so5+cVWNEscENSy55zBW5vq18nvySU
NInwwTgCKVcqrK9+xLMQ666fGJ7r5mJWtjmnU2uAmaqUmPacrWe+eSBk7LD0BlXI
+nj46DhPINuytUOOCEZH7qhIUHvOUvJiDrYIM+33c6diM8v8pwcyUamgt2bnNLbi
McEtLGYxlNVmw7FTfVKquUedeQIDAQABo4G5MIG2MAkGA1UdEwQCMAAwLAYJYIZI
AYb4QgENBB8WHU9wZW5TU0wgR2VuZXJhdGVkIENlcnRpZmljYXRlMB0GA1UdDgQW
BBRIeC6qhcjnC7ePRKB66lOD37h7/jAfBgNVHSMEGDAWgBTi178FC8rw7yJ+EGEH
GaN1614+TDA7BgNVHREENDAygg53d3cuYmFuazMyLmNvbYIPd3d3LmJhbmszMkEu
Y29tgg93d3cuYmFuazMyQi5jb20wDQYJKoZIhvcNAQELBQADggIBALTKWOkm8W2v
H61DyJLrv9fzOaAQT5aJwzNTiwTMqyiPaGBqV72sCfNcm9yofgUlZ93TIYhY0zH0
mURHJGvkGqD4/l7s1UDucCfv/rpAbxfZVsCPDT3qBDZrk7S4dH4bHMxNL6fLz9s1
9F8PGoaTXOlqb1cujoRMOnuzyXnkcOVcc3nxdRebtCVZMvWRfgKTp+2wEhvQAAnq
5flQ3PAYnR/rJ4GG88IfLERcSIFQc9OVkMH7JwS6Lm4tfKOb4iNoG6sVmCh6qpST
ADtb5T82OFros6ZUKpEHUZWlUqSH168zTYMQeQWVGMZ3UANwGdPnNNYYfHijofvz
wwJ9FV/6PgkFx7rt2PkhjA/pnBB8qHwH0mmIYqwz9jlynUc71C1VTNLT0KTZWIXy
2btK0gJWGsXJ+uY7jUg34RGjocPwORcpQk8EIFO3liWdVVnZLfuxpcZVhefXSRWQ
ZojuIMc9dtn1kjLg/LSYsu5JfufQuuZ63rfAVvl+IzkH2d4FAFtIxiA51kv4fhDD
Z0funB7nyBAncXcYwFuiKoUhREcXVvIfAM1VAZacg4jTGMAqKN41tXOC8uuXhV9b
z5UaPvbKL+OyVu9l0TbUjOBeeVvAuUAHFJwxrv3nk7aw4FJ/m8ilLyjj2pW8e5zi
QmqqwFUkJex2WcDxVKVujUtu0Wwix8ad
-----END CERTIFICATE-----
