Certificate:
    Data:
        Version: 3 (0x2)
        Serial Number: 4096 (0x1000)
        Signature Algorithm: sha256WithRSAEncryption
        Issuer: CN=www.modelCA.com, O=Model CA LTD., C=US
        Validity
            Not Before: Jun 27 13:58:18 2021 GMT
            Not After : Jun 25 13:58:18 2031 GMT
        Subject: CN=www.bank32.com
        Subject Public Key Info:
            Public Key Algorithm: rsaEncryption
                RSA Public-Key: (2048 bit)
                Modulus:
                    00:dd:a8:4c:95:b4:be:6a:52:62:75:93:c1:09:64:
                    e4:c3:c5:f3:f2:34:b7:fe:fa:82:0f:a2:5f:2f:bb:
                    6e:5b:d8:b7:21:aa:47:73:b5:3d:28:3d:17:df:8a:
                    cd:e5:e6:1a:2a:8f:09:37:ff:af:a8:cd:99:e7:09:
                    03:be:e2:07:61:b2:b0:65:cf:f7:31:e1:c7:5c:f2:
                    b7:8e:28:f2:a2:47:d1:c7:32:13:8c:25:a8:4b:ed:
                    f2:eb:6c:af:91:98:ac:e8:b3:0c:ff:53:52:6f:a0:
                    33:4f:3f:b8:5f:2e:19:a2:64:34:aa:8e:ee:09:b8:
                    58:19:9e:eb:cf:af:85:86:b1:af:f9:21:b8:d5:da:
                    eb:8b:58:d2:02:b5:9b:10:93:4b:e7:0d:ba:dc:11:
                    7d:4d:08:18:b4:28:2c:53:b0:68:ec:08:49:24:2c:
                    df:2b:e7:b3:c3:e1:67:03:27:07:6b:c6:75:54:ac:
                    91:a6:3a:66:75:b0:2d:3c:e9:e9:fd:9e:b8:89:5e:
                    22:69:61:9b:18:d8:2e:9b:80:c3:0c:09:e6:41:1a:
                    85:fc:81:2b:8b:4a:af:b9:60:51:d5:6b:5f:92:59:
                    9b:59:af:76:22:f8:a4:cc:6b:e9:92:86:34:ab:fd:
                    ca:89:a3:27:23:ea:e5:eb:58:f6:02:68:b3:44:80:
                    03:dd
                Exponent: 65537 (0x10001)
        X509v3 extensions:
            X509v3 Basic Constraints: 
                CA:FALSE
            Netscape Comment: 
                OpenSSL Generated Certificate
            X509v3 Subject Key Identifier: 
                B4:2A:6D:18:30:1C:85:7F:B2:64:31:13:7C:F7:D6:3E:EC:FE:19:D1
            X509v3 Authority Key Identifier: 
                keyid:E2:D7:BF:05:0B:CA:F0:EF:22:7E:10:61:07:19:A3:75:EB:5E:3E:4C

    Signature Algorithm: sha256WithRSAEncryption
         3a:cb:ac:6e:cb:3d:49:91:37:03:8e:98:dd:1f:70:b7:20:e7:
         6f:77:a4:a8:c8:85:ab:b2:3b:8d:f2:4c:40:29:7d:c7:2d:e4:
         47:85:6f:f6:d2:56:50:35:1d:08:03:ec:d0:51:76:60:10:34:
         28:b8:53:89:8b:fe:f8:77:b4:ca:68:13:dd:f9:44:c2:8a:28:
         67:2a:05:3d:e6:8e:08:7a:f6:07:df:04:6c:d7:fe:cd:e7:e5:
         34:82:58:db:7b:73:e7:98:c8:06:1b:68:16:d7:0e:9c:f4:3e:
         60:b2:94:bb:6b:e5:03:60:f8:ec:c2:52:e8:c6:53:5d:9a:6b:
         2b:da:ba:30:b0:25:99:b8:d2:77:b4:57:1f:70:98:26:de:31:
         24:88:d6:6a:a7:47:21:52:40:a2:f3:c8:ae:eb:d9:15:8d:43:
         b6:f2:f4:11:f9:08:68:a2:b4:c9:d3:b6:07:ae:72:a8:db:a7:
         d2:51:a7:27:db:e3:44:c9:90:5c:f7:bc:53:2d:ce:fe:4f:2c:
         bf:44:c3:c3:8d:0b:ad:d1:fa:8f:05:7c:ab:bb:da:15:32:36:
         54:ca:b5:36:b8:6d:81:d5:b6:fb:96:b7:c3:9d:68:cf:c3:3c:
         2c:06:d8:d4:ba:7d:a6:e2:93:52:b1:44:2c:8c:44:a1:51:97:
         c5:39:ab:d0:4a:bf:97:06:6a:86:c6:e3:a0:48:ca:66:c2:be:
         2a:74:12:ba:f6:a5:eb:e1:15:e6:ad:83:84:00:73:63:93:61:
         4f:31:8c:2c:39:93:5d:f5:eb:de:f4:83:d9:41:94:fd:df:b5:
         a9:b0:fa:6e:b7:38:b1:ad:4e:34:a9:8f:de:3c:a6:ef:2d:3b:
         c0:ef:f5:4a:0e:83:3a:8f:d2:4f:c2:9d:f0:8a:98:6d:37:61:
         72:9c:4b:e2:e2:c8:1a:51:8c:5e:8d:74:a0:77:97:c4:70:d4:
         02:f2:e3:5e:26:47:35:5b:b4:5c:6f:5a:86:38:2d:e2:25:42:
         01:0c:52:75:96:19:c1:a6:2d:7e:ea:63:46:8e:e0:61:e2:6d:
         f7:42:2e:00:4b:d6:15:6d:b5:0f:97:27:78:c1:86:00:16:7b:
         ea:91:48:44:2c:26:7a:43:7d:e9:0d:80:fe:85:08:27:93:c5:
         d7:59:4a:1c:9d:2a:2a:67:34:00:32:f5:e6:ea:42:35:89:16:
         46:37:f4:8c:ed:85:74:d1:ff:7e:f1:e3:dd:3f:8f:40:79:5d:
         a0:a9:3a:d0:3a:0d:6f:d6:37:a6:8f:b9:70:98:31:83:aa:c6:
         0e:aa:02:d5:5b:f1:96:83:af:4f:68:f9:6f:2d:a7:63:d7:4c:
         e7:67:3c:21:31:1a:9c:ea
-----BEGIN CERTIFICATE-----
MIIETzCCAjegAwIBAgICEAAwDQYJKoZIhvcNAQELBQAwPzEYMBYGA1UEAwwPd3d3
Lm1vZGVsQ0EuY29tMRYwFAYDVQQKDA1Nb2RlbCBDQSBMVEQuMQswCQYDVQQGEwJV
UzAeFw0yMTA2MjcxMzU4MThaFw0zMTA2MjUxMzU4MThaMBkxFzAVBgNVBAMMDnd3
dy5iYW5rMzIuY29tMIIBIjANBgkqhkiG9w0BAQEFAAOCAQ8AMIIBCgKCAQEA3ahM
lbS+alJidZPBCWTkw8Xz8jS3/vqCD6JfL7tuW9i3IapHc7U9KD0X34rN5eYaKo8J
N/+vqM2Z5wkDvuIHYbKwZc/3MeHHXPK3jijyokfRxzITjCWoS+3y62yvkZis6LMM
/1NSb6AzTz+4Xy4ZomQ0qo7uCbhYGZ7rz6+FhrGv+SG41drri1jSArWbEJNL5w26
3BF9TQgYtCgsU7Bo7AhJJCzfK+ezw+FnAycHa8Z1VKyRpjpmdbAtPOnp/Z64iV4i
aWGbGNgum4DDDAnmQRqF/IEri0qvuWBR1WtfklmbWa92IvikzGvpkoY0q/3KiaMn
I+rl61j2AmizRIAD3QIDAQABo3sweTAJBgNVHRMEAjAAMCwGCWCGSAGG+EIBDQQf
Fh1PcGVuU1NMIEdlbmVyYXRlZCBDZXJ0aWZpY2F0ZTAdBgNVHQ4EFgQUtCptGDAc
hX+yZDETfPfWPuz+GdEwHwYDVR0jBBgwFoAU4te/BQvK8O8ifhBhBxmjdetePkww
DQYJKoZIhvcNAQELBQADggIBADrLrG7LPUmRNwOOmN0fcLcg5293pKjIhauyO43y
TEApfcct5EeFb/bSVlA1HQgD7NBRdmAQNCi4U4mL/vh3tMpoE935RMKKKGcqBT3m
jgh69gffBGzX/s3n5TSCWNt7c+eYyAYbaBbXDpz0PmCylLtr5QNg+OzCUujGU12a
ayvaujCwJZm40ne0Vx9wmCbeMSSI1mqnRyFSQKLzyK7r2RWNQ7by9BH5CGiitMnT
tgeucqjbp9JRpyfb40TJkFz3vFMtzv5PLL9Ew8ONC63R+o8FfKu72hUyNlTKtTa4
bYHVtvuWt8OdaM/DPCwG2NS6fabik1KxRCyMRKFRl8U5q9BKv5cGaobG46BIymbC
vip0Err2pevhFeatg4QAc2OTYU8xjCw5k1316970g9lBlP3ftamw+m63OLGtTjSp
j948pu8tO8Dv9UoOgzqP0k/CnfCKmG03YXKcS+LiyBpRjF6NdKB3l8Rw1ALy414m
RzVbtFxvWoY4LeIlQgEMUnWWGcGmLX7qY0aO4GHibfdCLgBL1hVttQ+XJ3jBhgAW
e+qRSEQsJnpDfekNgP6FCCeTxddZShydKipnNAAy9ebqQjWJFkY39IzthXTR/37x
490/j0B5XaCpOtA6DW/WN6aPuXCYMYOqxg6qAtVb8ZaDr09o+W8tp2PXTOdnPCEx
Gpzq
-----END CERTIFICATE-----
