Certificate:
    Data:
        Version: 3 (0x2)
        Serial Number: 4097 (0x1001)
        Signature Algorithm: sha256WithRSAEncryption
        Issuer: CN=www.modelCA.com, O=Model CA LTD., C=US
        Validity
            Not Before: Jun 27 13:58:27 2021 GMT
            Not After : Jun 25 13:58:27 2031 GMT
        Subject: CN=www.example.com
        Subject Public Key Info:
            Public Key Algorithm: rsaEncryption
                RSA Public-Key: (2048 bit)
                Modulus:
                    00:a1:e1:bd:1d:69:1a:ff:3c:e4:f2:ec:6e:15:23:
                    10:8d:fa:7e:df:c5:18:4d:74:c3:a9:10:2b:ff:d0:
                    9f:82:03:67:4e:b4:f2:82:ac:8d:15:ef:92:4a:c0:
                    4f:82:93:d7:27:e7:c5:90:79:5f:a3:c1:ab:a7:26:
                    7f:78:38:b6:96:ac:9a:2b:00:6d:35:61:86:61:28:
                    3a:b9:db:01:cf:bf:04:77:d9:0f:2f:61:8f:34:7b:
                    3c:0c:b4:0f:81:19:8d:62:a0:ce:95:2f:5c:a7:0f:
                    38:39:8c:c9:ad:8b:1d:50:95:42:8c:ef:6c:c3:dc:
                    5e:4a:ee:be:11:7d:1c:5a:9e:08:07:3a:1a:30:f4:
                    f3:28:ca:48:44:e9:df:87:d8:59:01:3f:a3:af:92:
                    81:aa:dc:5c:2a:49:53:8f:8f:d6:3c:36:39:c2:2a:
                    e8:da:bc:70:b7:92:f9:dc:15:1a:f0:46:22:74:18:
                    5d:45:9d:9a:21:e5:9a:2a:ff:45:cc:9c:89:46:55:
                    27:0b:72:31:c7:14:ec:de:c6:f3:2e:ce:ab:ea:66:
                    65:fa:23:64:e9:01:3a:31:a9:89:9d:59:3e:2e:33:
                    9a:71:a1:3e:1b:e1:94:4b:18:eb:a8:17:a8:65:fc:
                    1c:af:d0:4c:77:d9:72:1f:84:ce:0a:b0:89:89:3c:
                    3c:4b
                Exponent: 65537 (0x10001)
        X509v3 extensions:
            X509v3 Basic Constraints: 
                CA:FALSE
            Netscape Comment: 
                OpenSSL Generated Certificate
            X509v3 Subject Key Identifier: 
                B0:CC:60:D0:B6:9A:1E:78:7B:D2:46:B2:89:5B:3A:09:15:72:5C:30
            X509v3 Authority Key Identifier: 
                keyid:E2:D7:BF:05:0B:CA:F0:EF:22:7E:10:61:07:19:A3:75:EB:5E:3E:4C

    Signature Algorithm: sha256WithRSAEncryption
         5f:1c:1f:7a:5f:6d:b7:d7:32:55:f6:34:ca:a9:73:17:2d:2d:
         4c:e2:bc:78:a7:f6:38:cc:9d:b1:6b:fb:5f:d7:86:dd:34:9e:
         0c:d5:bc:f2:34:24:e0:b5:f8:4c:91:13:34:0b:16:b2:f1:ac:
         27:5a:28:97:c9:c3:ff:fc:81:86:05:95:aa:fc:84:70:06:b7:
         6c:5c:3e:f8:77:cb:6e:e4:c9:9e:50:70:2f:61:2e:d2:1c:41:
         bc:52:30:1b:d9:92:42:6e:05:6d:51:de:6c:ae:f4:ca:66:54:
         05:71:d9:8b:2f:1f:f0:77:cf:d0:cf:9f:fe:9d:f2:eb:82:ae:
         96:ba:9c:1c:d9:52:a4:2d:9d:c6:f2:08:b5:b2:6d:16:fd:ba:
         24:51:57:9b:5b:02:78:3d:29:98:da:60:ec:31:ae:c0:41:b2:
         7b:85:2c:1b:9f:43:a9:8c:c7:c3:41:7c:b1:b0:6b:b2:f7:f7:
         01:1e:a5:54:06:3a:62:95:d4:d3:39:d0:a6:13:d8:fa:e4:fe:
         4a:a1:b2:4e:eb:0b:1c:17:bf:27:3f:f7:1a:9c:b1:c6:86:52:
         27:c3:f7:e7:96:e6:f1:2b:a6:9f:f7:41:f5:59:d0:32:08:01:
         90:d3:7a:35:2f:6d:73:c8:07:5b:df:26:61:3e:e3:cd:5b:26:
         46:29:7d:71:8b:e4:8c:6d:b4:16:4c:23:49:0d:85:58:95:ff:
         e1:cd:81:7f:61:ad:c0:02:9d:17:fc:ba:dd:3b:15:2a:59:53:
         a7:3c:ba:5a:a6:78:41:0a:9b:86:b4:08:5e:5e:29:74:11:ab:
         66:3c:60:51:f2:b6:91:d5:a3:39:04:35:b8:12:e0:0e:e5:ae:
         ac:5b:be:2a:ca:7a:99:af:1f:5e:c9:4b:e2:7e:b2:4d:fc:0d:
         6c:cf:b1:89:58:e0:64:91:5a:1b:df:c3:78:d5:75:1e:a5:b3:
         d9:4a:db:4a:39:91:93:66:3d:d3:22:48:96:71:e6:e8:ff:22:
         4e:b9:ee:75:b0:c9:22:40:0e:d4:af:0c:8e:4c:bb:ef:fd:08:
         b3:7d:35:e4:7a:5e:6b:b1:17:d8:ee:31:87:54:de:a0:7c:95:
         8e:f2:f6:d0:4e:41:7d:0d:89:a1:6b:79:c7:c0:fd:be:d1:82:
         e3:1e:30:36:e8:b6:f5:e8:b4:f3:9d:42:a7:2a:86:a6:87:a6:
         c3:65:78:39:0c:e0:d3:db:4c:aa:1b:b6:0a:d6:d4:60:d2:4f:
         5e:20:07:9d:86:6d:9e:03:43:7a:c3:3e:05:85:f0:8e:c3:a9:
         ae:14:86:c1:bf:c1:b4:36:c8:3e:77:46:92:17:ea:4a:97:ad:
         59:0f:6e:6d:e6:25:26:fe
-----BEGIN CERTIFICATE-----
MIIEUDCCAjigAwIBAgICEAEwDQYJKoZIhvcNAQELBQAwPzEYMBYGA1UEAwwPd3d3
Lm1vZGVsQ0EuY29tMRYwFAYDVQQKDA1Nb2RlbCBDQSBMVEQuMQswCQYDVQQGEwJV
UzAeFw0yMTA2MjcxMzU4MjdaFw0zMTA2MjUxMzU4MjdaMBoxGDAWBgNVBAMMD3d3
dy5leGFtcGxlLmNvbTCCASIwDQYJKoZIhvcNAQEBBQADggEPADCCAQoCggEBAKHh
vR1pGv885PLsbhUjEI36ft/FGE10w6kQK//Qn4IDZ0608oKsjRXvkkrAT4KT1yfn
xZB5X6PBq6cmf3g4tpasmisAbTVhhmEoOrnbAc+/BHfZDy9hjzR7PAy0D4EZjWKg
zpUvXKcPODmMya2LHVCVQozvbMPcXkruvhF9HFqeCAc6GjD08yjKSETp34fYWQE/
o6+SgarcXCpJU4+P1jw2OcIq6Nq8cLeS+dwVGvBGInQYXUWdmiHlmir/RcyciUZV
JwtyMccU7N7G8y7Oq+pmZfojZOkBOjGpiZ1ZPi4zmnGhPhvhlEsY66gXqGX8HK/Q
THfZch+EzgqwiYk8PEsCAwEAAaN7MHkwCQYDVR0TBAIwADAsBglghkgBhvhCAQ0E
HxYdT3BlblNTTCBHZW5lcmF0ZWQgQ2VydGlmaWNhdGUwHQYDVR0OBBYEFLDMYNC2
mh54e9JGsolbOgkVclwwMB8GA1UdIwQYMBaAFOLXvwULyvDvIn4QYQcZo3XrXj5M
MA0GCSqGSIb3DQEBCwUAA4ICAQBfHB96X2231zJV9jTKqXMXLS1M4rx4p/Y4zJ2x
a/tf14bdNJ4M1bzyNCTgtfhMkRM0Cxay8awnWiiXycP//IGGBZWq/IRwBrdsXD74
d8tu5MmeUHAvYS7SHEG8UjAb2ZJCbgVtUd5srvTKZlQFcdmLLx/wd8/Qz5/+nfLr
gq6Wupwc2VKkLZ3G8gi1sm0W/bokUVebWwJ4PSmY2mDsMa7AQbJ7hSwbn0OpjMfD
QXyxsGuy9/cBHqVUBjpildTTOdCmE9j65P5KobJO6wscF78nP/canLHGhlInw/fn
lubxK6af90H1WdAyCAGQ03o1L21zyAdb3yZhPuPNWyZGKX1xi+SMbbQWTCNJDYVY
lf/hzYF/Ya3AAp0X/LrdOxUqWVOnPLpapnhBCpuGtAheXil0EatmPGBR8raR1aM5
BDW4EuAO5a6sW74qynqZrx9eyUvifrJN/A1sz7GJWOBkkVob38N41XUepbPZSttK
OZGTZj3TIkiWcebo/yJOue51sMkiQA7UrwyOTLvv/QizfTXkel5rsRfY7jGHVN6g
fJWO8vbQTkF9DYmha3nHwP2+0YLjHjA26Lb16LTznUKnKoamh6bDZXg5DODT20yq
G7YK1tRg0k9eIAedhm2eA0N6wz4FhfCOw6muFIbBv8G0Nsg+d0aSF+pKl61ZD25t
5iUm/g==
-----END CERTIFICATE-----
