Certificate:
    Data:
        Version: 3 (0x2)
        Serial Number: 4099 (0x1003)
        Signature Algorithm: sha256WithRSAEncryption
        Issuer: CN=www.modelCA.com, O=Model CA LTD., C=US
        Validity
            Not Before: Jun 27 19:08:09 2021 GMT
            Not After : Jun 25 19:08:09 2031 GMT
        Subject: CN=www.google.com
        Subject Public Key Info:
            Public Key Algorithm: rsaEncryption
                RSA Public-Key: (2048 bit)
                Modulus:
                    00:e2:08:9e:21:7c:15:43:32:bd:aa:ba:53:a5:47:
                    b5:6f:4b:53:02:c7:ea:e5:38:f3:ff:90:29:7a:7b:
                    ca:60:2d:5f:40:76:79:87:3a:6c:be:ee:2f:05:1d:
                    ed:ff:66:c1:d6:91:ee:c7:d3:50:ec:b9:ea:21:3a:
                    a4:d0:a8:04:da:6e:52:b9:b4:f5:06:90:c5:36:53:
                    ce:93:33:76:18:8e:01:f3:58:51:c4:62:77:43:73:
                    d2:cf:81:7f:c0:16:00:88:24:68:a7:4b:30:be:35:
                    1b:63:4c:59:77:f2:31:29:78:c0:96:0f:67:ad:c5:
                    cb:f1:95:d1:44:3d:23:f0:16:cf:5c:92:c6:58:f5:
                    09:f8:21:1e:b5:18:55:b1:f3:f7:7f:0b:d9:49:97:
                    5c:15:fc:5b:37:7a:92:a0:af:c2:b0:f6:a5:16:0a:
                    0b:4c:ec:7b:11:9d:e4:13:c1:2f:e4:c4:6a:07:aa:
                    7d:bb:97:e6:30:1f:a4:e4:e8:82:52:13:72:61:0f:
                    32:bc:67:53:49:51:c4:3d:c1:a7:18:c1:71:e6:fb:
                    9e:45:bb:4f:97:b2:92:82:d9:30:39:e1:32:9e:0a:
                    54:18:93:e4:fe:fd:a0:53:24:5b:39:05:c2:24:5d:
                    2c:7b:b1:18:91:d1:54:c9:2b:53:03:05:12:e0:f5:
                    e2:ff
                Exponent: 65537 (0x10001)
        X509v3 extensions:
            X509v3 Basic Constraints: 
                CA:FALSE
            Netscape Comment: 
                OpenSSL Generated Certificate
            X509v3 Subject Key Identifier: 
                B3:75:0B:A6:22:F6:98:F1:0A:10:D8:C9:72:94:6F:F5:94:BD:B7:CA
            X509v3 Authority Key Identifier: 
                keyid:E2:D7:BF:05:0B:CA:F0:EF:22:7E:10:61:07:19:A3:75:EB:5E:3E:4C

    Signature Algorithm: sha256WithRSAEncryption
         41:23:63:8d:33:82:2e:47:f0:df:84:e4:5d:28:3f:39:8e:38:
         65:1d:71:a6:58:72:7d:0b:a9:55:a1:54:cf:d7:90:21:26:35:
         1b:bf:68:60:5f:3e:41:01:70:fa:26:3e:65:af:fe:d3:02:53:
         3b:77:03:72:ef:c1:d3:e3:95:c0:8a:79:da:17:00:2a:ec:37:
         9f:db:e4:a0:f1:30:18:5c:04:6c:ee:33:c3:b3:69:ef:79:3a:
         44:b8:d6:a9:90:cc:1c:5b:b1:9a:61:3c:8d:ae:13:93:88:98:
         4d:7c:e5:23:54:4e:70:1a:e6:f8:83:4f:ef:a1:ae:c5:c6:34:
         d1:48:ea:36:68:46:f7:7b:78:fc:07:78:8c:b5:e0:4e:ad:2a:
         13:c2:05:46:4e:ae:d9:2c:d2:4f:4e:4b:6b:2c:af:0a:50:a5:
         59:27:e4:84:4d:3e:8f:b0:49:7f:f3:2a:5a:a2:5f:f7:4a:9a:
         3f:ba:f5:6a:7b:12:25:90:4e:60:98:e4:8d:e0:b8:bd:78:7e:
         6a:d7:d5:66:cf:16:ac:ea:e4:78:95:e2:d0:77:49:9e:68:92:
         d4:3d:77:fd:e4:42:56:05:66:bb:4c:f4:2f:f6:5e:9a:4f:3b:
         6e:4c:21:57:96:47:22:77:75:88:7c:d9:87:d9:e9:e3:04:8c:
         66:f1:26:0f:eb:bf:b1:16:37:23:00:c7:08:f3:d3:9b:07:cd:
         f8:13:0b:51:60:9e:b5:97:fe:57:b6:f6:cb:ae:f2:55:ff:e1:
         54:b8:dd:06:ea:44:26:96:f2:03:63:64:d6:cb:09:b2:7d:b6:
         c7:87:92:6b:f3:7c:31:c5:9b:2a:3b:6d:60:b5:a8:de:d3:fb:
         ec:b8:c9:50:9a:f1:57:3c:d3:b4:b3:e9:07:1e:6f:7d:9f:e4:
         71:dc:47:12:26:ea:06:f7:e6:dc:06:8d:ac:4f:ee:a2:32:18:
         5b:c1:48:a5:8c:8e:38:49:26:71:cf:ff:fc:68:9e:ae:a7:77:
         2d:33:d8:35:33:cc:15:c2:d8:df:54:a7:5e:a4:25:5a:98:74:
         a0:13:a2:5f:2a:8b:46:12:d1:47:19:9f:db:97:94:86:b0:50:
         77:9e:68:5e:85:a3:31:b9:8e:11:b6:92:6d:02:11:76:97:44:
         da:49:94:d4:fe:e6:3d:da:c3:83:50:53:07:ef:cf:24:75:93:
         a4:2a:5d:1e:e1:a3:69:79:41:03:3c:90:1f:80:7b:ab:b0:38:
         e3:dd:57:24:57:03:51:fe:8d:b8:e2:8e:35:2c:00:9a:05:8e:
         cd:6e:bc:ff:75:fe:67:b5:6d:de:09:53:56:47:36:38:f0:71:
         87:02:f9:ff:41:fe:35:da
-----BEGIN CERTIFICATE-----
MIIETzCCAjegAwIBAgICEAMwDQYJKoZIhvcNAQELBQAwPzEYMBYGA1UEAwwPd3d3
Lm1vZGVsQ0EuY29tMRYwFAYDVQQKDA1Nb2RlbCBDQSBMVEQuMQswCQYDVQQGEwJV
UzAeFw0yMTA2MjcxOTA4MDlaFw0zMTA2MjUxOTA4MDlaMBkxFzAVBgNVBAMMDnd3
dy5nb29nbGUuY29tMIIBIjANBgkqhkiG9w0BAQEFAAOCAQ8AMIIBCgKCAQEA4gie
IXwVQzK9qrpTpUe1b0tTAsfq5Tjz/5ApenvKYC1fQHZ5hzpsvu4vBR3t/2bB1pHu
x9NQ7LnqITqk0KgE2m5SubT1BpDFNlPOkzN2GI4B81hRxGJ3Q3PSz4F/wBYAiCRo
p0swvjUbY0xZd/IxKXjAlg9nrcXL8ZXRRD0j8BbPXJLGWPUJ+CEetRhVsfP3fwvZ
SZdcFfxbN3qSoK/CsPalFgoLTOx7EZ3kE8Ev5MRqB6p9u5fmMB+k5OiCUhNyYQ8y
vGdTSVHEPcGnGMFx5vueRbtPl7KSgtkwOeEyngpUGJPk/v2gUyRbOQXCJF0se7EY
kdFUyStTAwUS4PXi/wIDAQABo3sweTAJBgNVHRMEAjAAMCwGCWCGSAGG+EIBDQQf
Fh1PcGVuU1NMIEdlbmVyYXRlZCBDZXJ0aWZpY2F0ZTAdBgNVHQ4EFgQUs3ULpiL2
mPEKENjJcpRv9ZS9t8owHwYDVR0jBBgwFoAU4te/BQvK8O8ifhBhBxmjdetePkww
DQYJKoZIhvcNAQELBQADggIBAEEjY40zgi5H8N+E5F0oPzmOOGUdcaZYcn0LqVWh
VM/XkCEmNRu/aGBfPkEBcPomPmWv/tMCUzt3A3LvwdPjlcCKedoXACrsN5/b5KDx
MBhcBGzuM8Ozae95OkS41qmQzBxbsZphPI2uE5OImE185SNUTnAa5viDT++hrsXG
NNFI6jZoRvd7ePwHeIy14E6tKhPCBUZOrtks0k9OS2ssrwpQpVkn5IRNPo+wSX/z
KlqiX/dKmj+69Wp7EiWQTmCY5I3guL14fmrX1WbPFqzq5HiV4tB3SZ5oktQ9d/3k
QlYFZrtM9C/2XppPO25MIVeWRyJ3dYh82YfZ6eMEjGbxJg/rv7EWNyMAxwjz05sH
zfgTC1FgnrWX/le29suu8lX/4VS43QbqRCaW8gNjZNbLCbJ9tseHkmvzfDHFmyo7
bWC1qN7T++y4yVCa8Vc807Sz6Qceb32f5HHcRxIm6gb35twGjaxP7qIyGFvBSKWM
jjhJJnHP//xonq6ndy0z2DUzzBXC2N9Up16kJVqYdKATol8qi0YS0UcZn9uXlIaw
UHeeaF6FozG5jhG2km0CEXaXRNpJlNT+5j3aw4NQUwfvzyR1k6QqXR7ho2l5QQM8
kB+Ae6uwOOPdVyRXA1H+jbjijjUsAJoFjs1uvP91/me1bd4JU1ZHNjjwcYcC+f9B
/jXa
-----END CERTIFICATE-----
