Certificate:
    Data:
        Version: 3 (0x2)
        Serial Number: 4100 (0x1004)
        Signature Algorithm: sha256WithRSAEncryption
        Issuer: CN=www.modelCA.com, O=Model CA LTD., C=US
        Validity
            Not Before: Jun 27 19:09:06 2021 GMT
            Not After : Jun 25 19:09:06 2031 GMT
        Subject: CN=www.google.com
        Subject Public Key Info:
            Public Key Algorithm: rsaEncryption
                RSA Public-Key: (2048 bit)
                Modulus:
                    00:bb:b2:97:b2:35:3b:70:d6:4c:08:29:d9:98:df:
                    14:ef:31:9e:24:0e:a8:87:68:d5:ab:59:b7:f7:dd:
                    7b:3d:0c:ac:b7:6e:0c:5e:e3:f0:85:fe:f7:6e:94:
                    09:dc:8e:92:45:98:2c:2c:9d:dc:97:1f:11:6f:6f:
                    46:3d:5b:35:19:78:75:82:35:48:d4:7c:62:67:3f:
                    0f:bd:bb:06:93:0b:14:e7:26:19:f8:01:4c:77:9b:
                    12:68:58:13:a6:37:1c:21:ce:09:67:85:d8:15:c7:
                    7b:f6:e2:0c:05:a9:15:87:95:28:ad:af:0c:c5:87:
                    3c:3b:5b:29:b4:89:b8:cf:48:ba:b4:0b:41:95:92:
                    9b:55:b4:61:23:53:bd:be:5a:3d:ab:f5:79:23:1e:
                    7b:16:97:df:01:17:23:3d:b0:37:86:15:56:ee:c7:
                    ca:46:81:2c:35:35:b6:8e:8a:fa:0a:15:c8:f5:33:
                    ce:6e:67:b2:d4:32:a3:46:a5:21:27:53:6d:41:b3:
                    72:89:8b:9e:5a:81:98:44:53:91:eb:de:cc:a4:14:
                    a0:89:52:51:dd:ba:26:da:ac:61:06:29:db:16:2b:
                    b8:2a:76:84:82:20:c5:e9:12:66:a4:a7:ed:bd:f4:
                    2a:c6:23:b9:b3:b5:aa:20:d3:07:e6:c7:0e:27:3a:
                    ed:d5
                Exponent: 65537 (0x10001)
        X509v3 extensions:
            X509v3 Basic Constraints: 
                CA:FALSE
            Netscape Comment: 
                OpenSSL Generated Certificate
            X509v3 Subject Key Identifier: 
                68:65:04:82:F3:76:48:D6:FE:C9:2B:32:10:ED:66:E8:A4:EB:B4:57
            X509v3 Authority Key Identifier: 
                keyid:E2:D7:BF:05:0B:CA:F0:EF:22:7E:10:61:07:19:A3:75:EB:5E:3E:4C

    Signature Algorithm: sha256WithRSAEncryption
         45:e7:2c:5c:f0:14:e9:43:91:cd:9b:ce:da:0f:19:ae:57:44:
         8d:7b:93:2d:32:5e:c3:2e:14:c8:be:e6:0e:92:aa:f4:ba:4d:
         01:e3:32:6f:df:ff:17:24:78:c1:20:b4:ef:ae:c5:32:9e:7a:
         20:c3:54:60:af:eb:10:72:90:73:5e:6d:8a:be:15:be:58:b1:
         d5:ce:60:d8:e8:7a:2a:e0:f5:bb:9a:7c:1e:c5:b7:0e:02:e6:
         8a:ce:4c:a8:0d:12:5d:11:60:90:0c:10:6b:ca:c3:f6:67:7f:
         be:a8:56:d2:3c:c3:1f:3f:55:92:6f:50:31:5a:7c:de:8c:75:
         b6:37:cb:9d:69:a0:ac:1e:b4:5b:65:de:0c:cb:46:c9:c4:0a:
         d9:58:32:01:7d:ca:cb:5c:59:73:62:ed:5a:8f:e6:fb:1e:77:
         7f:49:2d:bd:51:f1:8f:a8:a5:64:ee:0d:c0:6f:45:d3:a8:89:
         0b:e7:d4:7b:2f:5c:66:9e:de:6d:46:60:92:fe:51:78:65:b9:
         0d:02:e9:55:1a:e0:81:f7:53:1f:61:b6:46:d6:6b:0a:54:4b:
         ee:09:52:7c:9e:cc:20:a5:6d:c8:cf:36:82:e5:69:9a:c7:ec:
         df:4c:44:23:50:79:01:e3:89:a8:74:ee:62:fd:88:74:2f:06:
         ce:5c:33:d6:b2:a5:7f:a5:3b:bd:7f:39:08:30:51:9e:aa:2b:
         56:96:2d:3e:8d:0e:a2:d6:d8:18:e0:7c:e2:91:ab:c4:7b:55:
         aa:ed:15:56:ea:2b:e4:e7:34:08:78:f0:44:71:0f:b4:38:8d:
         41:e4:a8:ec:31:e4:d5:00:38:31:ca:bb:d8:e9:29:d7:cf:da:
         f9:d4:3f:95:94:fe:35:b4:32:e7:60:e9:8d:a6:6f:9d:9b:8f:
         65:38:d9:99:04:b4:96:31:cf:f1:6f:46:b9:c9:7a:c0:e0:42:
         ee:b3:4c:ed:7e:bf:9f:dc:b3:4d:11:b6:a5:4d:cc:de:a4:5b:
         5d:24:4c:13:11:4e:53:8d:e2:06:a1:2d:17:b6:03:e0:10:c6:
         16:ac:6d:53:41:78:13:11:ab:2e:d8:1e:be:ed:1f:9d:da:fa:
         ea:9d:90:d9:8e:41:d0:f3:97:62:a4:93:fe:6a:59:18:9c:08:
         01:2a:ca:c4:ed:6c:74:3f:40:05:0f:20:a6:0f:b7:da:10:46:
         0a:3e:32:2f:0c:11:5c:45:c7:38:73:4a:eb:82:76:23:13:80:
         fc:02:72:29:63:14:f0:e6:1b:13:47:b3:85:39:eb:62:81:6f:
         54:d9:bd:36:58:72:48:5e:1f:18:99:cb:40:f3:cc:d5:68:af:
         24:f6:df:fa:bb:93:97:23
-----BEGIN CERTIFICATE-----
MIIETzCCAjegAwIBAgICEAQwDQYJKoZIhvcNAQELBQAwPzEYMBYGA1UEAwwPd3d3
Lm1vZGVsQ0EuY29tMRYwFAYDVQQKDA1Nb2RlbCBDQSBMVEQuMQswCQYDVQQGEwJV
UzAeFw0yMTA2MjcxOTA5MDZaFw0zMTA2MjUxOTA5MDZaMBkxFzAVBgNVBAMMDnd3
dy5nb29nbGUuY29tMIIBIjANBgkqhkiG9w0BAQEFAAOCAQ8AMIIBCgKCAQEAu7KX
sjU7cNZMCCnZmN8U7zGeJA6oh2jVq1m39917PQyst24MXuPwhf73bpQJ3I6SRZgs
LJ3clx8Rb29GPVs1GXh1gjVI1HxiZz8PvbsGkwsU5yYZ+AFMd5sSaFgTpjccIc4J
Z4XYFcd79uIMBakVh5Uora8MxYc8O1sptIm4z0i6tAtBlZKbVbRhI1O9vlo9q/V5
Ix57FpffARcjPbA3hhVW7sfKRoEsNTW2jor6ChXI9TPObmey1DKjRqUhJ1NtQbNy
iYueWoGYRFOR697MpBSgiVJR3bom2qxhBinbFiu4KnaEgiDF6RJmpKftvfQqxiO5
s7WqINMH5scOJzrt1QIDAQABo3sweTAJBgNVHRMEAjAAMCwGCWCGSAGG+EIBDQQf
Fh1PcGVuU1NMIEdlbmVyYXRlZCBDZXJ0aWZpY2F0ZTAdBgNVHQ4EFgQUaGUEgvN2
SNb+ySsyEO1m6KTrtFcwHwYDVR0jBBgwFoAU4te/BQvK8O8ifhBhBxmjdetePkww
DQYJKoZIhvcNAQELBQADggIBAEXnLFzwFOlDkc2bztoPGa5XRI17ky0yXsMuFMi+
5g6SqvS6TQHjMm/f/xckeMEgtO+uxTKeeiDDVGCv6xBykHNebYq+Fb5YsdXOYNjo
eirg9buafB7Ftw4C5orOTKgNEl0RYJAMEGvKw/Znf76oVtI8wx8/VZJvUDFafN6M
dbY3y51poKwetFtl3gzLRsnECtlYMgF9ystcWXNi7VqP5vsed39JLb1R8Y+opWTu
DcBvRdOoiQvn1HsvXGae3m1GYJL+UXhluQ0C6VUa4IH3Ux9htkbWawpUS+4JUnye
zCClbcjPNoLlaZrH7N9MRCNQeQHjiah07mL9iHQvBs5cM9aypX+lO71/OQgwUZ6q
K1aWLT6NDqLW2BjgfOKRq8R7VartFVbqK+TnNAh48ERxD7Q4jUHkqOwx5NUAODHK
u9jpKdfP2vnUP5WU/jW0Mudg6Y2mb52bj2U42ZkEtJYxz/FvRrnJesDgQu6zTO1+
v5/cs00RtqVNzN6kW10kTBMRTlON4gahLRe2A+AQxhasbVNBeBMRqy7YHr7tH53a
+uqdkNmOQdDzl2Kkk/5qWRicCAEqysTtbHQ/QAUPIKYPt9oQRgo+Mi8MEVxFxzhz
SuuCdiMTgPwCciljFPDmGxNHs4U562KBb1TZvTZYckheHxiZy0DzzNVoryT23/q7
k5cj
-----END CERTIFICATE-----
