Certificate:
    Data:
        Version: 3 (0x2)
        Serial Number: 4101 (0x1005)
        Signature Algorithm: sha256WithRSAEncryption
        Issuer: CN=www.modelCA.com, O=Model CA LTD., C=US
        Validity
            Not Before: Jun 27 20:18:55 2021 GMT
            Not After : Jun 25 20:18:55 2031 GMT
        Subject: CN=www.example.com
        Subject Public Key Info:
            Public Key Algorithm: rsaEncryption
                RSA Public-Key: (2048 bit)
                Modulus:
                    00:de:8b:bd:13:a1:c8:82:92:41:37:74:f3:25:c9:
                    d4:cf:0d:0c:97:9b:4e:0d:da:92:a0:d2:1d:a1:7b:
                    ed:7b:46:fc:70:91:40:28:3d:0d:f7:cb:dc:e3:1d:
                    ce:31:c1:eb:5c:3c:3e:e2:71:69:97:4b:7d:c8:72:
                    a5:52:0c:fb:a5:21:a1:e2:c0:15:d3:52:91:91:c1:
                    9d:b6:6b:8a:35:cd:45:ec:2b:05:57:e5:bc:bb:ea:
                    e5:dd:8b:e1:91:55:b0:c9:12:1d:c7:66:f9:45:0b:
                    8d:c8:b9:33:35:8a:19:e2:61:24:84:19:e9:c5:ba:
                    09:b7:16:42:d3:61:ef:fd:96:e0:bf:a0:6a:cf:90:
                    f4:1d:5c:58:35:a1:09:28:f3:d9:d0:2d:34:b9:61:
                    5b:2f:eb:9f:5e:7d:b4:dc:e4:3f:8d:3c:af:d3:c7:
                    e2:b8:f4:02:b9:9e:a7:85:1c:09:70:e2:67:05:57:
                    1e:8a:c3:54:df:06:fc:81:88:0a:4d:e6:26:3b:f9:
                    27:a9:ed:b6:86:9a:0a:3f:d2:0d:fa:c4:a8:64:b5:
                    34:9e:ce:75:41:da:8f:57:95:b9:fb:71:cf:f9:d0:
                    7b:f5:e9:0b:9a:5e:4c:77:4b:11:e6:20:ae:ed:8d:
                    05:ac:ed:cb:f1:78:66:07:69:8b:fa:13:8c:8f:66:
                    cc:7f
                Exponent: 65537 (0x10001)
        X509v3 extensions:
            X509v3 Basic Constraints: 
                CA:FALSE
            Netscape Comment: 
                OpenSSL Generated Certificate
            X509v3 Subject Key Identifier: 
                07:54:37:5A:40:95:99:4F:AE:56:E0:F3:3C:67:00:0A:57:F6:EE:36
            X509v3 Authority Key Identifier: 
                keyid:E2:D7:BF:05:0B:CA:F0:EF:22:7E:10:61:07:19:A3:75:EB:5E:3E:4C

    Signature Algorithm: sha256WithRSAEncryption
         70:20:5e:e4:8c:13:92:f2:89:ef:0c:8c:db:96:3f:a1:94:21:
         d1:c0:84:65:c6:c5:5c:e2:78:31:70:9d:be:c8:67:c7:34:e4:
         fb:56:06:56:e5:f9:b2:4f:f3:be:22:7f:9e:b7:d2:89:f9:51:
         20:a1:34:fd:68:29:b3:e4:b1:c2:ac:52:71:41:54:40:bd:0b:
         a8:12:11:af:86:4a:f5:21:17:b3:0b:44:1a:af:6d:00:01:7f:
         f4:38:f1:cc:8c:25:27:6b:ca:c0:1c:89:69:1b:8d:33:21:76:
         43:03:2a:5f:fc:ad:f7:38:65:40:22:f5:f3:df:6d:cf:df:f5:
         41:75:01:7e:f6:00:2e:70:c3:5f:49:ef:41:79:ec:aa:c7:2c:
         b2:fb:40:dd:00:54:22:f5:6e:c7:ed:84:5a:a5:ae:27:ab:75:
         db:67:da:a1:26:23:1b:02:56:6a:95:d9:58:bb:05:77:2a:e7:
         ab:d9:66:81:b0:98:b9:dc:ce:2e:16:0c:12:90:2d:0e:62:8e:
         32:c8:d6:8e:8a:ce:1a:a2:52:d5:f7:51:23:50:d0:c2:1a:81:
         72:97:dc:5d:a0:91:3a:33:08:0d:4e:38:1c:6a:16:6f:7b:3b:
         a5:7f:56:db:16:b5:dd:49:ed:d2:70:36:b6:65:6c:26:0d:e3:
         5c:ea:33:f6:42:c3:58:25:a6:27:31:74:9e:85:0a:74:56:cb:
         f9:ff:a4:a6:1f:41:80:e1:b4:10:b7:87:b5:77:c2:8f:a5:88:
         5c:ec:88:82:6d:79:11:7c:bf:29:fb:50:f8:07:57:2f:67:dd:
         43:43:27:da:0c:e9:01:d9:2f:7a:8b:c7:af:16:b6:ea:16:a0:
         2f:23:8d:c4:e6:7f:13:2b:43:df:2d:b2:74:4d:5d:35:ca:b4:
         d2:68:59:47:5f:06:82:ab:ea:aa:15:35:a5:82:39:a7:70:c8:
         b8:31:b1:82:a2:08:9a:4d:f4:5e:fb:3b:be:41:ee:fa:56:a8:
         f0:b6:07:38:df:64:64:73:26:3b:10:12:c8:4b:a6:af:fa:ab:
         dd:9e:82:bc:71:e4:fb:7a:e1:29:af:1b:b2:06:c9:6e:c5:3b:
         94:48:37:55:c8:e7:20:76:d0:09:07:38:99:3d:ef:77:4c:86:
         22:4c:e1:cc:c8:f7:2b:cb:2f:0c:5a:98:04:7c:cc:ed:12:7a:
         2f:99:02:e9:3e:5d:9a:ad:6b:fb:a9:36:6b:35:c2:d9:b9:ad:
         99:83:c5:25:89:09:6f:67:56:1d:9d:18:c4:04:1e:39:55:48:
         6e:ac:d3:86:0f:75:6a:d9:41:27:05:d7:69:2a:89:00:97:23:
         cd:f4:af:e8:a8:86:d3:9f
-----BEGIN CERTIFICATE-----
MIIEUDCCAjigAwIBAgICEAUwDQYJKoZIhvcNAQELBQAwPzEYMBYGA1UEAwwPd3d3
Lm1vZGVsQ0EuY29tMRYwFAYDVQQKDA1Nb2RlbCBDQSBMVEQuMQswCQYDVQQGEwJV
UzAeFw0yMTA2MjcyMDE4NTVaFw0zMTA2MjUyMDE4NTVaMBoxGDAWBgNVBAMMD3d3
dy5leGFtcGxlLmNvbTCCASIwDQYJKoZIhvcNAQEBBQADggEPADCCAQoCggEBAN6L
vROhyIKSQTd08yXJ1M8NDJebTg3akqDSHaF77XtG/HCRQCg9DffL3OMdzjHB61w8
PuJxaZdLfchypVIM+6UhoeLAFdNSkZHBnbZrijXNRewrBVflvLvq5d2L4ZFVsMkS
Hcdm+UULjci5MzWKGeJhJIQZ6cW6CbcWQtNh7/2W4L+gas+Q9B1cWDWhCSjz2dAt
NLlhWy/rn159tNzkP408r9PH4rj0Armep4UcCXDiZwVXHorDVN8G/IGICk3mJjv5
J6nttoaaCj/SDfrEqGS1NJ7OdUHaj1eVuftxz/nQe/XpC5peTHdLEeYgru2NBazt
y/F4Zgdpi/oTjI9mzH8CAwEAAaN7MHkwCQYDVR0TBAIwADAsBglghkgBhvhCAQ0E
HxYdT3BlblNTTCBHZW5lcmF0ZWQgQ2VydGlmaWNhdGUwHQYDVR0OBBYEFAdUN1pA
lZlPrlbg8zxnAApX9u42MB8GA1UdIwQYMBaAFOLXvwULyvDvIn4QYQcZo3XrXj5M
MA0GCSqGSIb3DQEBCwUAA4ICAQBwIF7kjBOS8onvDIzblj+hlCHRwIRlxsVc4ngx
cJ2+yGfHNOT7VgZW5fmyT/O+In+et9KJ+VEgoTT9aCmz5LHCrFJxQVRAvQuoEhGv
hkr1IRezC0Qar20AAX/0OPHMjCUna8rAHIlpG40zIXZDAypf/K33OGVAIvXz323P
3/VBdQF+9gAucMNfSe9Beeyqxyyy+0DdAFQi9W7H7YRapa4nq3XbZ9qhJiMbAlZq
ldlYuwV3Kuer2WaBsJi53M4uFgwSkC0OYo4yyNaOis4aolLV91EjUNDCGoFyl9xd
oJE6MwgNTjgcahZvezulf1bbFrXdSe3ScDa2ZWwmDeNc6jP2QsNYJaYnMXSehQp0
Vsv5/6SmH0GA4bQQt4e1d8KPpYhc7IiCbXkRfL8p+1D4B1cvZ91DQyfaDOkB2S96
i8evFrbqFqAvI43E5n8TK0PfLbJ0TV01yrTSaFlHXwaCq+qqFTWlgjmncMi4MbGC
ogiaTfRe+zu+Qe76Vqjwtgc432RkcyY7EBLIS6av+qvdnoK8ceT7euEprxuyBslu
xTuUSDdVyOcgdtAJBziZPe93TIYiTOHMyPcryy8MWpgEfMztEnovmQLpPl2arWv7
qTZrNcLZua2Zg8UliQlvZ1YdnRjEBB45VUhurNOGD3Vq2UEnBddpKokAlyPN9K/o
qIbTnw==
-----END CERTIFICATE-----
