Certificate:
    Data:
        Version: 3 (0x2)
        Serial Number: 4102 (0x1006)
        Signature Algorithm: sha256WithRSAEncryption
        Issuer: CN=www.modelCA.com, O=Model CA LTD., C=US
        Validity
            Not Before: Jun 27 21:38:23 2021 GMT
            Not After : Jun 25 21:38:23 2031 GMT
        Subject: CN=www.google.com
        Subject Public Key Info:
            Public Key Algorithm: rsaEncryption
                RSA Public-Key: (2048 bit)
                Modulus:
                    00:d7:0c:82:9e:f2:56:59:4e:83:42:84:05:55:ee:
                    35:32:d7:71:21:8c:32:aa:e0:35:1d:2f:df:f3:94:
                    80:53:56:93:cb:a2:bd:42:c4:da:6e:bc:72:1a:22:
                    9f:d5:ac:c7:c5:6a:a9:83:fe:aa:15:8f:b9:57:c4:
                    d6:c6:6b:91:25:44:6b:a0:0a:b1:2f:60:b1:43:09:
                    5e:d0:da:4a:f3:35:94:a8:de:0b:91:f9:39:29:f2:
                    86:39:16:af:20:58:bb:8d:87:11:5a:be:b5:59:9c:
                    2a:4c:4d:5e:49:d5:5b:07:6d:fb:41:c8:4d:98:31:
                    d0:19:ee:71:ce:bd:cf:b3:d8:ac:30:88:88:7a:18:
                    32:03:ab:57:34:b5:ee:62:8b:b0:a3:9c:fe:9f:24:
                    36:0e:d7:13:af:b9:bd:55:82:87:de:07:1e:94:86:
                    ca:e6:ba:74:9d:e4:d4:de:7b:c1:f7:8f:33:32:9f:
                    cc:fd:0c:26:1b:1e:7a:a3:e4:cb:bb:c3:d3:7d:d0:
                    41:69:b8:27:83:73:35:c6:a8:e8:6e:f4:6d:a2:da:
                    44:77:ff:c1:83:b8:83:10:26:54:1a:cd:21:fc:58:
                    87:ff:89:b3:37:3f:83:25:56:4e:a8:ca:76:5c:96:
                    d8:b4:8c:f6:a1:fc:25:2f:60:15:52:39:65:ea:18:
                    16:19
                Exponent: 65537 (0x10001)
        X509v3 extensions:
            X509v3 Basic Constraints: 
                CA:FALSE
            Netscape Comment: 
                OpenSSL Generated Certificate
            X509v3 Subject Key Identifier: 
                5C:66:B4:A2:E3:C4:01:6A:A0:F6:B1:67:59:30:FE:74:41:1C:6A:C2
            X509v3 Authority Key Identifier: 
                keyid:E2:D7:BF:05:0B:CA:F0:EF:22:7E:10:61:07:19:A3:75:EB:5E:3E:4C

    Signature Algorithm: sha256WithRSAEncryption
         0b:ac:76:a9:3c:83:7c:b1:39:f2:18:94:91:9e:aa:aa:ee:de:
         b7:ac:7e:d9:84:8d:a5:5a:43:80:49:7d:66:bd:d6:6c:72:ac:
         62:ca:b8:ca:27:99:b7:66:09:50:f3:40:69:ce:3d:bb:90:97:
         c2:1a:ff:e7:14:52:45:24:69:8e:59:a0:34:21:49:5c:b8:eb:
         85:79:02:3e:a5:47:8f:e2:8b:77:af:c0:43:dc:2d:d7:db:66:
         5f:cf:dc:ac:94:53:91:39:48:2c:26:f9:bc:fb:d4:0b:e6:15:
         20:7b:fb:0e:fa:e7:2e:73:6f:d7:f9:15:87:66:fc:22:9c:16:
         33:5a:dd:e5:5f:35:17:22:b8:14:a4:e3:19:cf:33:66:4e:ba:
         25:93:1c:c3:2f:ea:31:29:ba:49:19:64:cb:07:ec:f7:78:e5:
         d1:e4:ea:24:e9:97:a7:c3:f7:67:da:0e:e7:38:6c:9c:43:f7:
         4a:33:fa:f7:8e:1f:35:6c:c0:2e:83:b4:80:2b:a8:7b:c6:34:
         ce:ee:6f:c5:22:b0:c9:46:10:56:fb:25:05:b4:2e:90:8f:ca:
         1f:c3:a0:f7:5d:16:25:78:e5:eb:4e:5e:98:6c:b9:99:6d:53:
         43:c8:a0:8a:61:d3:2e:c3:00:82:73:a7:f7:d6:f9:76:b9:c1:
         20:e3:94:d3:83:4d:60:4d:d1:70:23:2c:8b:22:e5:af:ce:5f:
         00:62:8d:5a:f0:de:a7:6e:b5:a9:3b:bc:f6:10:bb:0d:4d:b7:
         b4:7c:84:ae:17:4c:ab:c5:12:31:cb:88:1b:89:0d:b0:fd:75:
         11:9f:ee:56:88:ea:e2:bb:e0:70:63:66:c9:27:f8:e4:d3:6d:
         0f:81:65:1d:a2:69:5d:35:ac:ee:5b:31:7f:fd:4d:37:19:c7:
         c4:96:e5:f3:5f:eb:dc:77:48:fc:cf:d0:87:d1:a6:46:6d:58:
         41:56:63:f9:64:8b:8e:41:ce:61:81:78:1f:c1:a3:2e:56:c8:
         1c:10:12:8e:aa:65:66:d1:23:5d:f6:2a:a7:96:00:27:79:7f:
         4f:47:b3:62:9f:2b:61:e7:b2:55:ad:7e:e4:22:4d:87:84:4c:
         58:d7:a9:9c:a9:4e:34:82:8c:77:c2:88:5c:a2:6f:02:fc:63:
         41:52:dc:9a:40:62:9d:31:21:16:25:a4:b9:9e:dc:14:17:6d:
         d0:ea:ea:82:4f:e0:e5:17:e4:7a:d9:5a:4f:78:5f:87:39:e5:
         15:89:0c:40:fa:55:9d:26:78:ae:06:13:ff:38:ea:f3:75:68:
         83:d1:88:95:ff:d7:5c:4c:43:ce:e9:10:57:66:b7:cc:ed:d0:
         84:1f:4b:e8:9d:ea:f7:b4
-----BEGIN CERTIFICATE-----
MIIETzCCAjegAwIBAgICEAYwDQYJKoZIhvcNAQELBQAwPzEYMBYGA1UEAwwPd3d3
Lm1vZGVsQ0EuY29tMRYwFAYDVQQKDA1Nb2RlbCBDQSBMVEQuMQswCQYDVQQGEwJV
UzAeFw0yMTA2MjcyMTM4MjNaFw0zMTA2MjUyMTM4MjNaMBkxFzAVBgNVBAMMDnd3
dy5nb29nbGUuY29tMIIBIjANBgkqhkiG9w0BAQEFAAOCAQ8AMIIBCgKCAQEA1wyC
nvJWWU6DQoQFVe41MtdxIYwyquA1HS/f85SAU1aTy6K9QsTabrxyGiKf1azHxWqp
g/6qFY+5V8TWxmuRJURroAqxL2CxQwle0NpK8zWUqN4Lkfk5KfKGORavIFi7jYcR
Wr61WZwqTE1eSdVbB237QchNmDHQGe5xzr3Ps9isMIiIehgyA6tXNLXuYouwo5z+
nyQ2DtcTr7m9VYKH3gcelIbK5rp0neTU3nvB948zMp/M/QwmGx56o+TLu8PTfdBB
abgng3M1xqjobvRtotpEd//Bg7iDECZUGs0h/FiH/4mzNz+DJVZOqMp2XJbYtIz2
ofwlL2AVUjll6hgWGQIDAQABo3sweTAJBgNVHRMEAjAAMCwGCWCGSAGG+EIBDQQf
Fh1PcGVuU1NMIEdlbmVyYXRlZCBDZXJ0aWZpY2F0ZTAdBgNVHQ4EFgQUXGa0ouPE
AWqg9rFnWTD+dEEcasIwHwYDVR0jBBgwFoAU4te/BQvK8O8ifhBhBxmjdetePkww
DQYJKoZIhvcNAQELBQADggIBAAusdqk8g3yxOfIYlJGeqqru3resftmEjaVaQ4BJ
fWa91mxyrGLKuMonmbdmCVDzQGnOPbuQl8Ia/+cUUkUkaY5ZoDQhSVy464V5Aj6l
R4/ii3evwEPcLdfbZl/P3KyUU5E5SCwm+bz71AvmFSB7+w765y5zb9f5FYdm/CKc
FjNa3eVfNRciuBSk4xnPM2ZOuiWTHMMv6jEpukkZZMsH7Pd45dHk6iTpl6fD92fa
Duc4bJxD90oz+veOHzVswC6DtIArqHvGNM7ub8UisMlGEFb7JQW0LpCPyh/DoPdd
FiV45etOXphsuZltU0PIoIph0y7DAIJzp/fW+Xa5wSDjlNODTWBN0XAjLIsi5a/O
XwBijVrw3qdutak7vPYQuw1Nt7R8hK4XTKvFEjHLiBuJDbD9dRGf7laI6uK74HBj
Zskn+OTTbQ+BZR2iaV01rO5bMX/9TTcZx8SW5fNf69x3SPzP0IfRpkZtWEFWY/lk
i45BzmGBeB/Boy5WyBwQEo6qZWbRI132KqeWACd5f09Hs2KfK2HnslWtfuQiTYeE
TFjXqZypTjSCjHfCiFyibwL8Y0FS3JpAYp0xIRYlpLme3BQXbdDq6oJP4OUX5HrZ
Wk94X4c55RWJDED6VZ0meK4GE/846vN1aIPRiJX/11xMQ87pEFdmt8zt0IQfS+id
6ve0
-----END CERTIFICATE-----
