Certificate:
    Data:
        Version: 3 (0x2)
        Serial Number: 4103 (0x1007)
        Signature Algorithm: sha256WithRSAEncryption
        Issuer: CN=www.modelCA.com, O=Model CA LTD., C=US
        Validity
            Not Before: Jun 27 21:49:04 2021 GMT
            Not After : Jun 25 21:49:04 2031 GMT
        Subject: CN=www.google.com
        Subject Public Key Info:
            Public Key Algorithm: rsaEncryption
                RSA Public-Key: (2048 bit)
                Modulus:
                    00:cb:4f:97:15:65:59:7a:6a:c5:54:b6:56:16:0d:
                    ed:c4:66:5d:07:6c:19:f2:ea:97:54:4f:06:d0:0f:
                    28:f8:ff:46:6b:1d:d5:5e:f0:51:ed:90:ee:6b:82:
                    22:a8:e5:56:12:da:8f:bc:16:4d:e2:cb:f5:d0:d3:
                    0d:43:ad:ec:f6:a9:27:2f:5c:b8:b8:d0:1a:16:9e:
                    2c:60:e4:af:49:45:33:62:ec:31:d7:dc:60:7a:3b:
                    3f:c4:9a:fa:a3:74:fa:da:00:94:86:20:12:04:0f:
                    b3:ba:ab:36:95:65:d9:76:47:9d:f8:e6:67:45:8b:
                    64:33:b0:a5:35:32:da:93:77:fa:6a:de:d7:96:f1:
                    23:cb:1c:e9:91:7d:c7:33:7b:5e:95:fb:c7:b4:59:
                    3d:d9:6c:21:1a:b2:0b:2e:e5:4f:40:ab:1a:78:3f:
                    a8:1c:fc:33:aa:51:0f:ab:12:76:c0:d7:1d:f2:13:
                    13:79:0c:2c:0b:62:d7:5f:01:07:2a:fb:c6:3f:d8:
                    57:ad:ae:b0:62:38:4e:4e:24:31:c3:a2:99:a9:25:
                    b4:4e:e3:16:6a:6d:c0:d3:8c:c2:7e:b7:77:2b:41:
                    eb:73:38:ea:fb:ba:b8:76:44:03:b8:b1:cf:80:38:
                    1d:e4:42:a4:6c:2a:2c:dd:26:9c:c4:bc:83:2b:1b:
                    00:79
                Exponent: 65537 (0x10001)
        X509v3 extensions:
            X509v3 Basic Constraints: 
                CA:FALSE
            Netscape Comment: 
                OpenSSL Generated Certificate
            X509v3 Subject Key Identifier: 
                93:67:C5:17:56:CA:1C:D0:D8:2B:17:0D:FB:27:38:D7:A7:59:DB:C8
            X509v3 Authority Key Identifier: 
                keyid:E2:D7:BF:05:0B:CA:F0:EF:22:7E:10:61:07:19:A3:75:EB:5E:3E:4C

    Signature Algorithm: sha256WithRSAEncryption
         a7:24:92:ff:e4:44:64:ef:37:fb:7e:39:fe:59:e9:5b:08:bd:
         52:dc:04:83:ea:0a:f0:c2:95:fb:a9:19:21:71:ae:a7:c1:9e:
         cc:5c:5e:2c:5b:4f:ff:f7:2d:c7:a8:f1:f2:3f:e5:11:52:57:
         f9:3b:a1:b5:a3:0c:92:dd:e0:19:f8:1d:49:ae:cf:7a:5b:4a:
         e6:26:bd:b1:06:22:ae:d8:26:a9:c7:15:0b:9b:ff:c2:f0:cd:
         8f:fe:51:6c:37:8c:29:79:b9:ce:6c:71:5a:f1:66:73:b5:c9:
         87:82:e9:ef:2d:21:58:51:bd:4f:a1:fd:a5:38:80:9d:4b:cf:
         0b:8a:b8:a5:43:51:f5:12:72:50:e2:c9:22:2d:bb:26:b7:97:
         cc:ea:c0:c6:d0:a4:54:bc:be:4a:04:e9:90:af:1b:b1:3a:5f:
         08:e5:87:c7:9e:72:3a:17:bd:55:8a:09:ea:ff:4a:f0:49:54:
         36:39:e9:8a:8b:f2:ac:54:6a:93:8b:fa:0e:36:16:a2:f2:54:
         d6:90:27:21:3f:b0:cb:ec:66:50:90:a6:93:da:b9:ee:61:4b:
         dd:14:2b:fb:b0:f6:3f:66:26:00:90:ca:27:cb:a4:4c:44:54:
         48:42:ab:2d:4f:fe:0a:85:94:bb:66:6e:d1:c0:19:88:36:84:
         bd:ff:c8:a4:70:5e:4a:2d:a4:9b:8c:f8:b0:cf:ce:10:41:c8:
         7a:f4:26:67:89:43:0c:d0:4f:66:df:e8:7f:95:53:70:0d:e4:
         29:b6:3b:d1:79:4d:5c:61:2e:a8:cb:15:da:9e:59:6b:50:c5:
         cb:c4:07:19:69:96:66:39:73:61:f3:78:a9:a1:14:e8:6c:cf:
         c1:db:48:f0:39:4d:b7:5f:1e:3b:df:6e:7d:be:01:96:74:41:
         7a:da:e2:40:78:05:81:7a:5a:b2:2e:f6:10:9f:85:fb:90:bd:
         ba:60:0a:b2:44:08:5b:eb:f0:db:4c:72:56:99:cc:4f:5e:1d:
         0c:dc:36:e2:1f:97:62:ae:65:8c:8f:30:35:ed:68:98:1c:ed:
         af:b2:6a:ce:c5:c4:10:12:4f:1b:e8:f4:df:f8:9f:7b:0c:c8:
         57:88:99:db:87:43:74:bc:f5:a8:f0:b3:64:a0:21:b5:59:10:
         c1:9b:56:34:df:8b:ad:f9:78:eb:f1:9e:17:87:42:06:73:90:
         e5:47:6c:7f:e6:2b:75:ea:29:ac:2c:2f:16:48:65:89:7b:70:
         35:c8:c4:5f:45:4b:89:38:b5:93:f1:03:1e:3a:e2:2e:cb:78:
         3f:fa:64:7e:86:5d:20:21:9e:54:26:6c:fe:76:8d:d6:0f:2e:
         cf:63:d2:1d:5b:3b:fd:79
-----BEGIN CERTIFICATE-----
MIIETzCCAjegAwIBAgICEAcwDQYJKoZIhvcNAQELBQAwPzEYMBYGA1UEAwwPd3d3
Lm1vZGVsQ0EuY29tMRYwFAYDVQQKDA1Nb2RlbCBDQSBMVEQuMQswCQYDVQQGEwJV
UzAeFw0yMTA2MjcyMTQ5MDRaFw0zMTA2MjUyMTQ5MDRaMBkxFzAVBgNVBAMMDnd3
dy5nb29nbGUuY29tMIIBIjANBgkqhkiG9w0BAQEFAAOCAQ8AMIIBCgKCAQEAy0+X
FWVZemrFVLZWFg3txGZdB2wZ8uqXVE8G0A8o+P9Gax3VXvBR7ZDua4IiqOVWEtqP
vBZN4sv10NMNQ63s9qknL1y4uNAaFp4sYOSvSUUzYuwx19xgejs/xJr6o3T62gCU
hiASBA+zuqs2lWXZdked+OZnRYtkM7ClNTLak3f6at7XlvEjyxzpkX3HM3telfvH
tFk92WwhGrILLuVPQKsaeD+oHPwzqlEPqxJ2wNcd8hMTeQwsC2LXXwEHKvvGP9hX
ra6wYjhOTiQxw6KZqSW0TuMWam3A04zCfrd3K0Hrczjq+7q4dkQDuLHPgDgd5EKk
bCos3SacxLyDKxsAeQIDAQABo3sweTAJBgNVHRMEAjAAMCwGCWCGSAGG+EIBDQQf
Fh1PcGVuU1NMIEdlbmVyYXRlZCBDZXJ0aWZpY2F0ZTAdBgNVHQ4EFgQUk2fFF1bK
HNDYKxcN+yc416dZ28gwHwYDVR0jBBgwFoAU4te/BQvK8O8ifhBhBxmjdetePkww
DQYJKoZIhvcNAQELBQADggIBAKckkv/kRGTvN/t+Of5Z6VsIvVLcBIPqCvDClfup
GSFxrqfBnsxcXixbT//3Lceo8fI/5RFSV/k7obWjDJLd4Bn4HUmuz3pbSuYmvbEG
Iq7YJqnHFQub/8LwzY/+UWw3jCl5uc5scVrxZnO1yYeC6e8tIVhRvU+h/aU4gJ1L
zwuKuKVDUfUSclDiySItuya3l8zqwMbQpFS8vkoE6ZCvG7E6Xwjlh8eecjoXvVWK
Cer/SvBJVDY56YqL8qxUapOL+g42FqLyVNaQJyE/sMvsZlCQppPaue5hS90UK/uw
9j9mJgCQyifLpExEVEhCqy1P/gqFlLtmbtHAGYg2hL3/yKRwXkotpJuM+LDPzhBB
yHr0JmeJQwzQT2bf6H+VU3AN5Cm2O9F5TVxhLqjLFdqeWWtQxcvEBxlplmY5c2Hz
eKmhFOhsz8HbSPA5TbdfHjvfbn2+AZZ0QXra4kB4BYF6WrIu9hCfhfuQvbpgCrJE
CFvr8NtMclaZzE9eHQzcNuIfl2KuZYyPMDXtaJgc7a+yas7FxBASTxvo9N/4n3sM
yFeImduHQ3S89ajws2SgIbVZEMGbVjTfi635eOvxnheHQgZzkOVHbH/mK3XqKaws
LxZIZYl7cDXIxF9FS4k4tZPxAx464i7LeD/6ZH6GXSAhnlQmbP52jdYPLs9j0h1b
O/15
-----END CERTIFICATE-----
