Certificate:
    Data:
        Version: 3 (0x2)
        Serial Number: 4104 (0x1008)
        Signature Algorithm: sha256WithRSAEncryption
        Issuer: CN=www.modelCA.com, O=Model CA LTD., C=US
        Validity
            Not Before: Jun 27 22:47:21 2021 GMT
            Not After : Jun 25 22:47:21 2031 GMT
        Subject: CN=*
        Subject Public Key Info:
            Public Key Algorithm: rsaEncryption
                RSA Public-Key: (2048 bit)
                Modulus:
                    00:fa:67:b5:08:cf:b1:d5:44:81:30:05:17:4f:ec:
                    49:a8:c1:0a:7a:bc:f4:01:59:a3:a7:5f:b4:ef:ab:
                    dc:8b:92:c0:38:56:bb:4d:0c:22:a5:78:23:bd:49:
                    6a:6d:81:55:ec:91:13:c4:7a:2e:21:cd:38:2e:47:
                    aa:34:17:82:2d:f8:fd:f3:68:d1:02:5b:03:7a:08:
                    a2:68:53:f5:7f:c8:92:24:4e:ec:b9:5f:a6:ee:58:
                    d7:77:93:fe:e8:f4:de:3a:9d:02:bc:38:b6:4a:3d:
                    9a:7c:77:85:da:79:1e:0d:30:65:17:b1:fe:6c:57:
                    af:c2:59:3d:71:86:7c:f8:8a:94:e9:66:c8:9e:77:
                    07:d6:11:20:9f:ef:18:4f:5d:40:d2:bd:1f:f9:21:
                    b6:a7:01:4d:52:e8:9c:02:ac:21:2e:64:39:69:77:
                    86:25:95:02:61:7d:fe:d2:32:71:35:5c:a0:a2:41:
                    81:8f:6f:d3:f5:e2:be:82:a2:4e:b8:6e:d2:f5:5c:
                    89:25:83:cc:b1:91:a1:0c:f5:17:f7:c6:26:98:a5:
                    bd:2b:fd:c8:fe:1f:d1:41:6d:03:47:c7:6d:b8:6e:
                    ea:e8:cb:96:68:32:05:9a:6c:98:51:a1:03:1b:b5:
                    fe:89:7d:dd:01:72:16:85:a9:2f:06:72:b4:ff:ee:
                    b6:13
                Exponent: 65537 (0x10001)
        X509v3 extensions:
            X509v3 Basic Constraints: 
                CA:FALSE
            Netscape Comment: 
                OpenSSL Generated Certificate
            X509v3 Subject Key Identifier: 
                E4:75:0C:DA:9A:B6:98:21:F0:0E:38:06:42:07:55:3F:64:EF:C5:85
            X509v3 Authority Key Identifier: 
                keyid:E2:D7:BF:05:0B:CA:F0:EF:22:7E:10:61:07:19:A3:75:EB:5E:3E:4C

    Signature Algorithm: sha256WithRSAEncryption
         43:97:10:f5:82:b9:50:1a:30:d3:ba:c2:00:05:01:85:8e:bc:
         08:29:a7:25:e9:90:a3:fc:3d:59:70:01:60:a2:5f:7f:87:24:
         08:c9:d2:6a:f9:23:6e:a8:2e:49:4d:1c:eb:f9:ed:4e:3b:ba:
         42:d3:09:bf:65:57:64:1c:f9:8b:f9:22:05:92:b1:3c:b4:4f:
         e4:45:eb:28:71:af:ed:21:b6:94:1b:29:05:5c:3b:3f:9b:03:
         18:92:ca:36:18:d9:ce:26:c2:4a:9c:de:04:0e:54:99:cd:00:
         05:5f:a8:8a:de:72:59:b3:aa:7e:5a:3e:b8:e9:7c:24:b0:1b:
         79:ee:ce:89:2d:7b:79:7b:86:e9:e4:30:85:6b:cb:e7:8a:6f:
         62:84:47:db:ed:d8:b6:7c:e1:dd:6c:85:b3:0c:0a:db:ee:7d:
         47:88:55:b6:da:ef:05:2c:47:db:7f:eb:43:b0:a2:7e:4c:39:
         f7:f6:70:39:53:b5:34:d2:75:27:2f:9f:bb:ac:8b:73:5d:b6:
         cb:96:d5:4e:4d:f0:cd:17:1e:fa:45:41:54:d9:28:3f:66:bd:
         23:51:a5:9b:a1:e7:72:85:87:c1:5e:53:c8:d9:fc:99:c4:87:
         33:35:f9:b9:e7:84:8e:a2:f7:bf:b4:65:19:18:8d:31:51:08:
         15:8b:34:cc:c2:86:09:3b:3a:87:da:88:a1:7c:c0:27:f6:b3:
         8d:d3:3d:7f:a9:43:e6:52:f5:2b:1f:41:c1:6f:9e:53:3b:6b:
         10:7d:22:67:07:d6:2d:e8:f0:2f:e6:4c:c5:7f:1f:c5:12:61:
         c2:44:e3:1e:72:58:9a:1d:f5:83:e0:34:92:70:60:36:d6:2f:
         9f:f8:e2:77:2a:03:dc:2f:7e:af:29:4e:13:5d:39:e6:ab:da:
         ce:06:8c:e7:41:db:fa:b9:9c:7f:82:80:c1:5b:77:a1:3f:24:
         d6:0d:6c:85:79:ee:ca:9b:00:5e:20:80:12:9f:2e:aa:a9:59:
         8c:e0:76:e9:c5:39:39:03:e1:e7:1d:ca:d0:c7:21:fd:9d:f2:
         71:4e:44:54:7f:e1:6e:bf:d3:66:c6:6f:0f:41:b0:f5:cc:60:
         72:21:9b:22:35:f6:30:a9:e5:10:ce:ee:f9:43:a8:f5:4e:aa:
         e4:ac:ff:4f:3d:aa:dd:e4:b8:93:7d:e5:5a:75:f3:31:a3:b8:
         01:9c:5e:40:11:6b:f1:7a:60:cb:6b:f6:2c:2f:26:1b:86:d1:
         fe:6a:92:2e:eb:52:fb:93:75:00:03:d2:2e:76:5d:90:63:48:
         b8:98:da:43:be:20:28:58:0d:05:aa:33:1f:0b:47:21:07:ec:
         3e:e6:61:d0:27:0a:a8:e4
-----BEGIN CERTIFICATE-----
MIIEQjCCAiqgAwIBAgICEAgwDQYJKoZIhvcNAQELBQAwPzEYMBYGA1UEAwwPd3d3
Lm1vZGVsQ0EuY29tMRYwFAYDVQQKDA1Nb2RlbCBDQSBMVEQuMQswCQYDVQQGEwJV
UzAeFw0yMTA2MjcyMjQ3MjFaFw0zMTA2MjUyMjQ3MjFaMAwxCjAIBgNVBAMMASow
ggEiMA0GCSqGSIb3DQEBAQUAA4IBDwAwggEKAoIBAQD6Z7UIz7HVRIEwBRdP7Emo
wQp6vPQBWaOnX7Tvq9yLksA4VrtNDCKleCO9SWptgVXskRPEei4hzTguR6o0F4It
+P3zaNECWwN6CKJoU/V/yJIkTuy5X6buWNd3k/7o9N46nQK8OLZKPZp8d4XaeR4N
MGUXsf5sV6/CWT1xhnz4ipTpZsiedwfWESCf7xhPXUDSvR/5IbanAU1S6JwCrCEu
ZDlpd4YllQJhff7SMnE1XKCiQYGPb9P14r6Cok64btL1XIklg8yxkaEM9Rf3xiaY
pb0r/cj+H9FBbQNHx224buroy5ZoMgWabJhRoQMbtf6Jfd0BchaFqS8GcrT/7rYT
AgMBAAGjezB5MAkGA1UdEwQCMAAwLAYJYIZIAYb4QgENBB8WHU9wZW5TU0wgR2Vu
ZXJhdGVkIENlcnRpZmljYXRlMB0GA1UdDgQWBBTkdQzamraYIfAOOAZCB1U/ZO/F
hTAfBgNVHSMEGDAWgBTi178FC8rw7yJ+EGEHGaN1614+TDANBgkqhkiG9w0BAQsF
AAOCAgEAQ5cQ9YK5UBow07rCAAUBhY68CCmnJemQo/w9WXABYKJff4ckCMnSavkj
bqguSU0c6/ntTju6QtMJv2VXZBz5i/kiBZKxPLRP5EXrKHGv7SG2lBspBVw7P5sD
GJLKNhjZzibCSpzeBA5Umc0ABV+oit5yWbOqflo+uOl8JLAbee7OiS17eXuG6eQw
hWvL54pvYoRH2+3Ytnzh3WyFswwK2+59R4hVttrvBSxH23/rQ7Cifkw59/ZwOVO1
NNJ1Jy+fu6yLc122y5bVTk3wzRce+kVBVNkoP2a9I1Glm6HncoWHwV5TyNn8mcSH
MzX5ueeEjqL3v7RlGRiNMVEIFYs0zMKGCTs6h9qIoXzAJ/azjdM9f6lD5lL1Kx9B
wW+eUztrEH0iZwfWLejwL+ZMxX8fxRJhwkTjHnJYmh31g+A0knBgNtYvn/jidyoD
3C9+rylOE1055qvazgaM50Hb+rmcf4KAwVt3oT8k1g1shXnuypsAXiCAEp8uqqlZ
jOB26cU5OQPh5x3K0Mch/Z3ycU5EVH/hbr/TZsZvD0Gw9cxgciGbIjX2MKnlEM7u
+UOo9U6q5Kz/Tz2q3eS4k33lWnXzMaO4AZxeQBFr8Xpgy2v2LC8mG4bR/mqSLutS
+5N1AAPSLnZdkGNIuJjaQ74gKFgNBaozHwtHIQfsPuZh0CcKqOQ=
-----END CERTIFICATE-----
