Certificate:
    Data:
        Version: 3 (0x2)
        Serial Number: 4105 (0x1009)
        Signature Algorithm: sha256WithRSAEncryption
        Issuer: CN=www.modelCA.com, O=Model CA LTD., C=US
        Validity
            Not Before: Jun 27 22:48:44 2021 GMT
            Not After : Jun 25 22:48:44 2031 GMT
        Subject: CN=www.google.com
        Subject Public Key Info:
            Public Key Algorithm: rsaEncryption
                RSA Public-Key: (2048 bit)
                Modulus:
                    00:d1:69:a3:6d:30:7e:3b:33:d1:73:42:fb:d5:f3:
                    80:fd:5d:c6:c2:4b:0d:1e:b4:50:a8:11:9e:a8:97:
                    b5:82:af:ae:f3:69:08:e6:e6:37:82:71:9b:17:86:
                    68:df:ab:c3:00:c3:c4:0c:79:c5:38:32:bb:ad:c8:
                    d8:b0:5a:80:6e:9e:41:e2:30:07:2c:73:55:98:fc:
                    ee:54:1b:74:b6:6f:54:7d:17:93:32:0d:33:86:72:
                    c8:ba:cf:9d:99:f1:8d:14:1c:77:b4:a3:18:2d:13:
                    e1:fc:d1:45:65:35:6e:32:8c:78:54:b6:ca:b5:df:
                    f5:1d:74:04:8d:5b:77:9f:31:36:b1:30:1c:b2:c9:
                    1e:5f:1e:67:24:e5:75:4f:da:be:92:22:bc:01:98:
                    f2:35:57:86:e9:b6:a7:bd:bf:5e:8e:85:d5:e8:60:
                    a7:fa:00:35:98:f6:9e:8f:16:4a:a8:92:a2:4c:92:
                    2b:2b:3d:26:fb:21:07:d1:09:38:7d:c8:47:77:92:
                    f8:10:09:67:46:6f:3b:f9:52:fc:57:05:e4:2a:15:
                    68:ad:27:72:b5:9e:53:c8:b9:21:ce:08:3a:6a:8b:
                    30:6c:68:97:5c:30:c0:a9:91:de:be:80:0e:2b:58:
                    01:f2:da:3f:b9:26:48:8b:9d:4f:25:de:39:2a:d5:
                    ae:d7
                Exponent: 65537 (0x10001)
        X509v3 extensions:
            X509v3 Basic Constraints: 
                CA:FALSE
            Netscape Comment: 
                OpenSSL Generated Certificate
            X509v3 Subject Key Identifier: 
                A9:C8:62:5D:C4:6C:F7:34:3E:17:5D:19:C9:15:C0:1A:A7:A6:EA:50
            X509v3 Authority Key Identifier: 
                keyid:E2:D7:BF:05:0B:CA:F0:EF:22:7E:10:61:07:19:A3:75:EB:5E:3E:4C

    Signature Algorithm: sha256WithRSAEncryption
         ab:4a:15:b6:c1:3e:0a:e1:87:af:ac:29:03:ff:73:4b:76:32:
         c4:fc:0d:96:a1:82:a8:76:9d:dc:37:73:cf:c2:ad:85:69:a0:
         35:cb:61:4a:12:33:65:7a:d3:f4:7c:5e:f3:1b:91:01:3d:ee:
         8d:96:a0:aa:7b:4a:55:ec:25:6e:66:9c:87:f5:47:5e:60:87:
         66:e1:11:ff:1f:bf:e3:1d:34:31:87:46:55:78:be:85:37:62:
         e4:72:a6:5c:a9:6f:bb:6b:69:82:46:03:09:a4:f9:2e:84:64:
         53:f3:f8:08:c0:d5:8f:50:4f:0b:d9:66:73:0e:23:4d:c4:5d:
         52:46:21:56:1c:1a:09:ae:2d:7c:98:98:4f:1d:c4:14:28:de:
         37:cd:68:86:e2:31:b3:72:bf:45:3a:31:59:ac:16:06:93:fa:
         0e:18:00:3b:ab:db:6a:63:ea:73:99:db:1e:97:ac:e2:0a:1e:
         d9:b8:ee:a3:25:a2:e7:9b:19:4e:fe:52:66:4d:a5:9f:fb:d1:
         ba:eb:69:c4:a2:0f:0c:19:cb:c7:bf:61:bf:fd:5e:01:fd:c0:
         51:39:c4:04:9a:3e:a3:ee:e8:31:9e:16:f8:40:48:f2:5c:c2:
         bb:8d:52:9f:65:73:aa:bf:44:0d:a9:aa:06:7c:b7:9a:57:3b:
         b1:90:75:d0:d4:3e:a8:92:a7:b1:f5:c7:95:55:65:bc:ca:10:
         82:4a:3a:07:20:03:8e:ed:f4:5c:f6:57:1f:4d:ea:1b:a5:ca:
         85:d1:90:1c:7f:25:1f:e2:7d:45:a4:b3:f8:60:b7:ac:28:0a:
         88:1a:e4:29:67:40:46:ba:3c:9a:14:63:3c:c3:a2:29:cb:b3:
         e1:1f:3f:36:e6:9d:1f:7c:48:a3:b5:fd:54:9c:db:b6:63:d0:
         61:d2:73:0f:d6:ca:b2:ca:7e:cb:aa:d2:57:f6:31:40:29:ae:
         79:73:37:27:da:54:80:53:d5:62:92:4b:88:54:9f:ed:db:97:
         d8:a8:3e:de:e8:e9:f2:e4:15:46:67:ee:84:6b:28:6a:96:26:
         8c:3f:24:3c:ae:39:1a:4c:7a:c5:df:63:85:ba:e2:4b:40:ea:
         bf:7b:1d:f5:0e:20:08:56:79:68:cb:31:1c:5e:d7:57:39:4f:
         5c:36:a2:0c:85:b8:8f:8a:c7:94:5b:1d:6f:07:c7:76:64:5f:
         b8:4a:da:53:f8:3a:5a:d6:27:be:f9:18:8e:2a:39:10:a0:a0:
         16:a6:af:89:23:66:37:6d:6e:ba:c9:b2:20:a0:14:98:72:26:
         8f:bd:9c:d8:63:d4:3e:31:0c:56:32:11:29:06:45:cd:df:9d:
         1c:d2:5d:64:8a:1a:06:4c
-----BEGIN CERTIFICATE-----
MIIETzCCAjegAwIBAgICEAkwDQYJKoZIhvcNAQELBQAwPzEYMBYGA1UEAwwPd3d3
Lm1vZGVsQ0EuY29tMRYwFAYDVQQKDA1Nb2RlbCBDQSBMVEQuMQswCQYDVQQGEwJV
UzAeFw0yMTA2MjcyMjQ4NDRaFw0zMTA2MjUyMjQ4NDRaMBkxFzAVBgNVBAMMDnd3
dy5nb29nbGUuY29tMIIBIjANBgkqhkiG9w0BAQEFAAOCAQ8AMIIBCgKCAQEA0Wmj
bTB+OzPRc0L71fOA/V3GwksNHrRQqBGeqJe1gq+u82kI5uY3gnGbF4Zo36vDAMPE
DHnFODK7rcjYsFqAbp5B4jAHLHNVmPzuVBt0tm9UfReTMg0zhnLIus+dmfGNFBx3
tKMYLRPh/NFFZTVuMox4VLbKtd/1HXQEjVt3nzE2sTAcsskeXx5nJOV1T9q+kiK8
AZjyNVeG6banvb9ejoXV6GCn+gA1mPaejxZKqJKiTJIrKz0m+yEH0Qk4fchHd5L4
EAlnRm87+VL8VwXkKhVorSdytZ5TyLkhzgg6aoswbGiXXDDAqZHevoAOK1gB8to/
uSZIi51PJd45KtWu1wIDAQABo3sweTAJBgNVHRMEAjAAMCwGCWCGSAGG+EIBDQQf
Fh1PcGVuU1NMIEdlbmVyYXRlZCBDZXJ0aWZpY2F0ZTAdBgNVHQ4EFgQUqchiXcRs
9zQ+F10ZyRXAGqem6lAwHwYDVR0jBBgwFoAU4te/BQvK8O8ifhBhBxmjdetePkww
DQYJKoZIhvcNAQELBQADggIBAKtKFbbBPgrhh6+sKQP/c0t2MsT8DZahgqh2ndw3
c8/CrYVpoDXLYUoSM2V60/R8XvMbkQE97o2WoKp7SlXsJW5mnIf1R15gh2bhEf8f
v+MdNDGHRlV4voU3YuRyplypb7traYJGAwmk+S6EZFPz+AjA1Y9QTwvZZnMOI03E
XVJGIVYcGgmuLXyYmE8dxBQo3jfNaIbiMbNyv0U6MVmsFgaT+g4YADur22pj6nOZ
2x6XrOIKHtm47qMlouebGU7+UmZNpZ/70brracSiDwwZy8e/Yb/9XgH9wFE5xASa
PqPu6DGeFvhASPJcwruNUp9lc6q/RA2pqgZ8t5pXO7GQddDUPqiSp7H1x5VVZbzK
EIJKOgcgA47t9Fz2Vx9N6hulyoXRkBx/JR/ifUWks/hgt6woCoga5ClnQEa6PJoU
YzzDoinLs+EfPzbmnR98SKO1/VSc27Zj0GHScw/WyrLKfsuq0lf2MUAprnlzNyfa
VIBT1WKSS4hUn+3bl9ioPt7o6fLkFUZn7oRrKGqWJow/JDyuORpMesXfY4W64ktA
6r97HfUOIAhWeWjLMRxe11c5T1w2ogyFuI+Kx5RbHW8Hx3ZkX7hK2lP4OlrWJ775
GI4qORCgoBamr4kjZjdtbrrJsiCgFJhyJo+9nNhj1D4xDFYyESkGRc3fnRzSXWSK
GgZM
-----END CERTIFICATE-----
