Certificate:
    Data:
        Version: 3 (0x2)
        Serial Number: 4106 (0x100a)
        Signature Algorithm: sha256WithRSAEncryption
        Issuer: CN=www.modelCA.com, O=Model CA LTD., C=US
        Validity
            Not Before: Jun 28 01:49:20 2021 GMT
            Not After : Jun 26 01:49:20 2031 GMT
        Subject: CN=www.google.com
        Subject Public Key Info:
            Public Key Algorithm: rsaEncryption
                RSA Public-Key: (2048 bit)
                Modulus:
                    00:d4:15:9a:20:9f:8a:af:6b:79:df:21:34:e0:72:
                    02:04:06:23:74:f7:63:43:6a:6f:b4:7b:98:8f:50:
                    2b:15:b6:7d:b6:2b:8d:52:bf:11:ee:8e:33:c3:02:
                    19:d5:6c:04:b3:86:a5:74:e0:e9:a4:6e:79:ea:29:
                    03:00:3b:ef:47:bd:8a:21:11:31:11:fb:22:8c:55:
                    42:29:ff:f7:16:3d:ed:8f:cc:d1:d2:cf:f1:c9:67:
                    43:35:5e:aa:53:4b:85:88:f0:46:48:a4:1d:ca:78:
                    e4:3e:dc:5c:4c:49:aa:97:4f:0b:85:e9:fe:00:79:
                    c7:79:b1:39:63:30:d1:14:bb:b7:92:47:3d:e1:48:
                    8b:f8:2b:ff:de:18:36:44:de:82:b8:9f:7e:92:4b:
                    31:8e:c2:fd:72:12:76:7f:f7:53:28:23:c1:8d:19:
                    a4:15:d0:97:60:49:a8:e7:c0:a1:3b:f6:f9:77:a2:
                    d1:33:a7:99:e3:8e:aa:c9:6b:41:30:33:28:3e:4f:
                    7a:b1:00:b3:cd:46:17:8f:c0:eb:01:8a:52:0c:24:
                    b3:68:73:65:b1:1e:f5:82:03:d9:4e:47:30:f1:e9:
                    4f:a2:65:b4:fb:02:47:9e:37:a4:60:70:cd:12:9b:
                    18:60:45:bd:18:97:54:7a:d3:d1:f6:13:0a:a9:b2:
                    c2:8b
                Exponent: 65537 (0x10001)
        X509v3 extensions:
            X509v3 Basic Constraints: 
                CA:FALSE
            Netscape Comment: 
                OpenSSL Generated Certificate
            X509v3 Subject Key Identifier: 
                B5:1F:EA:20:8C:9D:C9:23:D8:64:0C:7D:4A:9B:1B:BE:20:87:09:65
            X509v3 Authority Key Identifier: 
                keyid:E2:D7:BF:05:0B:CA:F0:EF:22:7E:10:61:07:19:A3:75:EB:5E:3E:4C

    Signature Algorithm: sha256WithRSAEncryption
         16:cf:65:8c:f8:cc:b4:2e:01:1f:b5:1d:c0:b8:b2:6c:e5:85:
         8e:ea:93:bb:3f:1f:4c:96:e0:73:6b:fa:c2:13:dc:63:36:24:
         92:aa:41:a8:e9:02:ff:c1:36:73:be:87:62:20:59:c3:3d:9c:
         be:69:28:31:cb:0f:b3:38:04:bc:cd:86:f0:52:d1:e9:a0:04:
         23:51:d5:98:e0:27:10:d0:0c:01:44:b5:2f:89:25:80:34:7f:
         32:0a:9f:20:e8:8f:6e:24:28:ea:3a:06:4c:25:65:bd:67:2b:
         11:01:c3:2f:4d:53:c5:ac:35:2d:72:32:2a:5f:2f:97:20:21:
         b6:bb:61:0e:fb:e3:14:4e:b3:25:a7:cf:b1:27:93:70:80:80:
         7b:1d:92:f5:4a:9e:ad:3e:d0:dc:1e:75:b0:ae:90:fb:df:03:
         fe:67:fb:bc:b2:f4:45:3a:00:a7:01:c2:38:d2:f1:b6:3e:66:
         96:47:d5:25:a3:c4:b0:83:5c:42:d9:9d:ea:b1:eb:ea:76:a1:
         45:89:85:4a:3f:48:7a:26:f1:77:7d:06:27:a7:43:5d:de:f4:
         cf:a2:58:d5:26:5f:2a:55:70:29:f4:5a:96:76:f5:98:88:51:
         d4:a2:35:e4:db:5b:0b:9f:af:32:a5:40:a6:9b:db:ed:cb:d7:
         07:9b:a6:b9:13:7c:77:58:47:7c:81:7e:3b:75:66:40:44:5a:
         09:20:0e:f4:57:80:d1:6a:fb:44:95:e6:d2:2b:c9:4f:38:2a:
         35:79:bd:8a:c0:8b:47:c9:43:04:b6:17:a6:60:70:8c:55:a8:
         2a:7d:91:b3:65:4a:67:13:07:84:65:dd:eb:b4:8f:53:25:d1:
         de:6a:51:90:60:23:98:67:10:1b:03:9c:39:1a:bb:41:36:48:
         a5:c1:d9:c4:88:38:a3:4f:f1:fb:c9:d5:64:a1:63:d4:30:fb:
         68:5a:39:ae:86:57:67:e1:21:3c:40:e4:c7:22:cf:fa:4d:49:
         d6:17:19:29:2e:79:5b:33:cc:4c:92:84:8a:86:5a:12:51:c1:
         ea:24:bc:b4:8d:a9:26:c0:91:96:aa:c0:00:f4:87:ce:94:b1:
         cb:7e:33:64:e0:65:e9:36:2e:7d:9c:aa:63:a1:ff:8d:8b:2f:
         ac:4d:80:06:39:c3:a6:7f:23:8c:53:88:83:88:d2:64:75:29:
         5c:33:56:b7:37:e3:7c:b2:8d:71:53:e4:6d:6f:ea:58:2f:de:
         2f:1c:81:3d:ed:fa:a8:3f:2d:d8:94:5f:0e:bd:42:3d:20:f9:
         5a:9a:fa:c4:b9:04:50:eb:e4:53:30:a5:9c:45:03:38:04:50:
         8c:2b:a9:ee:8b:76:73:9d
-----BEGIN CERTIFICATE-----
MIIETzCCAjegAwIBAgICEAowDQYJKoZIhvcNAQELBQAwPzEYMBYGA1UEAwwPd3d3
Lm1vZGVsQ0EuY29tMRYwFAYDVQQKDA1Nb2RlbCBDQSBMVEQuMQswCQYDVQQGEwJV
UzAeFw0yMTA2MjgwMTQ5MjBaFw0zMTA2MjYwMTQ5MjBaMBkxFzAVBgNVBAMMDnd3
dy5nb29nbGUuY29tMIIBIjANBgkqhkiG9w0BAQEFAAOCAQ8AMIIBCgKCAQEA1BWa
IJ+Kr2t53yE04HICBAYjdPdjQ2pvtHuYj1ArFbZ9tiuNUr8R7o4zwwIZ1WwEs4al
dODppG556ikDADvvR72KIRExEfsijFVCKf/3Fj3tj8zR0s/xyWdDNV6qU0uFiPBG
SKQdynjkPtxcTEmql08Lhen+AHnHebE5YzDRFLu3kkc94UiL+Cv/3hg2RN6CuJ9+
kksxjsL9chJ2f/dTKCPBjRmkFdCXYEmo58ChO/b5d6LRM6eZ446qyWtBMDMoPk96
sQCzzUYXj8DrAYpSDCSzaHNlsR71ggPZTkcw8elPomW0+wJHnjekYHDNEpsYYEW9
GJdUetPR9hMKqbLCiwIDAQABo3sweTAJBgNVHRMEAjAAMCwGCWCGSAGG+EIBDQQf
Fh1PcGVuU1NMIEdlbmVyYXRlZCBDZXJ0aWZpY2F0ZTAdBgNVHQ4EFgQUtR/qIIyd
ySPYZAx9SpsbviCHCWUwHwYDVR0jBBgwFoAU4te/BQvK8O8ifhBhBxmjdetePkww
DQYJKoZIhvcNAQELBQADggIBABbPZYz4zLQuAR+1HcC4smzlhY7qk7s/H0yW4HNr
+sIT3GM2JJKqQajpAv/BNnO+h2IgWcM9nL5pKDHLD7M4BLzNhvBS0emgBCNR1Zjg
JxDQDAFEtS+JJYA0fzIKnyDoj24kKOo6BkwlZb1nKxEBwy9NU8WsNS1yMipfL5cg
Iba7YQ774xROsyWnz7Enk3CAgHsdkvVKnq0+0NwedbCukPvfA/5n+7yy9EU6AKcB
wjjS8bY+ZpZH1SWjxLCDXELZneqx6+p2oUWJhUo/SHom8Xd9BienQ13e9M+iWNUm
XypVcCn0WpZ29ZiIUdSiNeTbWwufrzKlQKab2+3L1webprkTfHdYR3yBfjt1ZkBE
WgkgDvRXgNFq+0SV5tIryU84KjV5vYrAi0fJQwS2F6ZgcIxVqCp9kbNlSmcTB4Rl
3eu0j1Ml0d5qUZBgI5hnEBsDnDkau0E2SKXB2cSIOKNP8fvJ1WShY9Qw+2haOa6G
V2fhITxA5Mciz/pNSdYXGSkueVszzEyShIqGWhJRweokvLSNqSbAkZaqwAD0h86U
sct+M2TgZek2Ln2cqmOh/42LL6xNgAY5w6Z/I4xTiIOI0mR1KVwzVrc343yyjXFT
5G1v6lgv3i8cgT3t+qg/LdiUXw69Qj0g+Vqa+sS5BFDr5FMwpZxFAzgEUIwrqe6L
dnOd
-----END CERTIFICATE-----
